(dp0
Vprofici
p1
(I192574
I1
tp2
sVwhatev
p3
(I263042
I3
tp4
sS'ridden'
p5
(I209316
I1
tp6
sVinterchang
p7
(I133721
I2
tp8
sS'four'
p9
(I109610
I16
tp10
sVsecondli
p11
(I214594
I10
tp12
sS'protest'
p13
(I194328
I3
tp14
sS'sleep'
p15
(I224483
I2
tp16
sVsuzann
p17
(I236238
I1
tp18
sS'radakrishnan'
p19
(I198528
I1
tp20
sS'6pm'
p21
(I18751
I2
tp22
sVunascertain
p23
(I252211
I1
tp24
sVrepetit
p25
(I205831
I1
tp26
sS'sch'
p27
(I213792
I1
tp28
sVdisappear
p29
(I85814
I2
tp30
sS'whose'
p31
(I266002
I8
tp32
sVaccus
p33
(I24371
I16
tp34
sVaccur
p35
(I24304
I3
tp36
sVauthoris
p37
(I43261
I5
tp38
sVsorri
p39
(I226931
I1
tp40
sS'ali'
p41
(I30153
I2
tp42
sS'scold'
p43
(I213904
I2
tp44
sS'079212'
p45
(I1207
I1
tp46
sS'31pm'
p47
(I13154
I1
tp48
sVdeviat
p49
(I84058
I1
tp50
sS'340'
p51
(I13542
I2
tp52
sS'341'
p53
(I13569
I2
tp54
sS'under'
p55
(I252514
I25
tp56
sS'tai'
p57
(I236678
I1
tp58
sS'lord'
p59
(I150568
I10
tp60
sVregrett
p61
(I203359
I2
tp62
sVwall
p63
(I260325
I1
tp64
sVsway
p65
(I236252
I1
tp66
sS'worth'
p67
(I269301
I1
tp68
sS'1958'
p69
(I6411
I2
tp70
sS'964'
p71
(I20789
I1
tp72
sS'digit'
p73
(I85201
I1
tp74
sS'wjm'
p75
(I268288
I1
tp76
sVeveri
p77
(I98247
I10
tp78
sVrisk
p79
(I209795
I4
tp80
sVration
p81
(I199395
I1
tp82
sS'ingen'
p83
(I131443
I1
tp84
sS'166'
p85
(I4817
I1
tp86
sS'void'
p87
(I259290
I5
tp88
sS'rise'
p89
(I209768
I2
tp90
sVvoic
p91
(I259276
I1
tp92
sVdistort
p93
(I87785
I1
tp94
sVquantif
p95
(I197474
I1
tp96
sS'implicit'
p97
(I127550
I1
tp98
sS'p1'
p99
(I178541
I1
tp100
sVarous
p101
(I39506
I2
tp102
sVgovern
p103
(I114540
I7
tp104
sS'affect'
p105
(I27578
I10
tp106
sVhitch
p107
(I122633
I1
tp108
sS'voir'
p109
(I259359
I3
tp110
sVsuddenli
p111
(I233935
I3
tp112
sS'bestway'
p113
(I49033
I1
tp114
sS'736'
p115
(I19401
I1
tp116
sS'disturb'
p117
(I88131
I3
tp118
sS'4731'
p119
(I15875
I1
tp120
sS'4736'
p121
(I15903
I1
tp122
sS'motorcyclist'
p123
(I161849
I1
tp124
sS'4735'
p125
(I15889
I1
tp126
sS'960'
p127
(I20775
I1
tp128
sS'duncan'
p129
(I91226
I1
tp130
sVsleev
p131
(I224510
I1
tp132
sVfactori
p133
(I102826
I3
tp134
sS'solid'
p135
(I225786
I1
tp136
sVmessr
p137
(I157982
I1
tp138
sVenquir
p139
(I95436
I3
tp140
sS'crotch'
p141
(I76706
I1
tp142
sS'299'
p143
(I12213
I1
tp144
sS'fortiori'
p145
(I109137
I1
tp146
sS'294'
p147
(I12199
I1
tp148
sVwholli
p149
(I265754
I7
tp150
sS'repack'
p151
(I205624
I1
tp152
sVhabea
p153
(I116436
I1
tp154
sVreimburs
p155
(I203509
I1
tp156
sVinterplead
p157
(I134137
I2
tp158
sS'chew'
p159
(I59617
I1
tp160
sS'charter'
p161
(I59055
I2
tp162
sVerron
p163
(I96836
I1
tp164
sS'cher'
p165
(I59521
I1
tp166
sS'10m'
p167
(I2324
I1
tp168
sVdirect
p169
(I85391
I15
tp170
sS'nair'
p171
(I163279
I1
tp172
sS'horn'
p173
(I123544
I1
tp174
sVvarieti
p175
(I257265
I1
tp176
sVconsequ
p177
(I68481
I13
tp178
sS'272'
p179
(I11727
I1
tp180
sS'street'
p181
(I231386
I2
tp182
sVaggreg
p183
(I29124
I1
tp184
sS'276'
p185
(I11769
I5
tp186
sS'277'
p187
(I11838
I1
tp188
sS'278'
p189
(I11852
I1
tp190
sVmelvil
p191
(I157111
I1
tp192
sVkidnap
p193
(I141422
I1
tp194
sS'596'
p195
(I17609
I1
tp196
sVransack
p197
(I199162
I1
tp198
sS'chei'
p199
(I59342
I1
tp200
sS'even'
p201
(I97617
I21
tp202
sVsupervis
p203
(I235021
I3
tp204
sVdialogu
p205
(I84182
I1
tp206
sS'mnc'
p207
(I159872
I1
tp208
sS'hide'
p209
(I121158
I2
tp210
sVneg
p211
(I164923
I2
tp212
sVasid
p213
(I40488
I7
tp214
sVcalcul
p215
(I54302
I4
tp216
sVdecre
p217
(I80144
I1
tp218
sS'launch'
p219
(I144421
I1
tp220
sS'481c'
p221
(I16042
I1
tp222
sS'45pm'
p223
(I15711
I1
tp224
sS'kum'
p225
(I142744
I1
tp226
sS'cheng'
p227
(I59397
I5
tp228
sVconduct
p229
(I67488
I15
tp230
sS'supplier'
p231
(I235157
I1
tp232
sS'new'
p233
(I165544
I9
tp234
sS'net'
p235
(I165256
I2
tp236
sS'ever'
p237
(I98191
I4
tp238
sVhappi
p239
(I117709
I1
tp240
sVliberti
p241
(I147768
I2
tp242
sS'told'
p243
(I247548
I12
tp244
sS'beow'
p245
(I48865
I1
tp246
sS'246403'
p247
(I10553
I1
tp248
sS'246400'
p249
(I10539
I1
tp250
sVmillion
p251
(I158587
I2
tp252
sS'246407'
p253
(I10581
I1
tp254
sS'246404'
p255
(I10567
I1
tp256
sS'vi'
p257
(I258177
I3
tp258
sS'join'
p259
(I138271
I6
tp260
sS'ulterior'
p261
(I251909
I1
tp262
sS'never'
p263
(I165311
I12
tp264
sVlodg
p265
(I149915
I4
tp266
sVotios
p267
(I176413
I3
tp268
sS'drew'
p269
(I90370
I6
tp270
sVrestat
p271
(I207924
I1
tp272
sS'met'
p273
(I157996
I9
tp274
sS'108'
p275
(I2202
I1
tp276
sS'109'
p277
(I2230
I3
tp278
sVmultipli
p279
(I162349
I1
tp280
sS'ethanol'
p281
(I97534
I1
tp282
sS'598'
p283
(I17623
I1
tp284
sS'100'
p285
(I1966
I4
tp286
sS'101'
p287
(I2077
I1
tp288
sS'106'
p289
(I2160
I1
tp290
sVenrol
p291
(I95532
I1
tp292
sVinterpret
p293
(I134192
I10
tp294
sS'105'
p295
(I2146
I1
tp296
sVincom
p297
(I129459
I4
tp298
sVcpi
p299
(I75451
I1
tp300
sVdeterior
p301
(I83700
I1
tp302
sS'forum'
p303
(I109165
I2
tp304
sVenvironment
p305
(I96284
I2
tp306
sVmilitari
p307
(I158559
I1
tp308
sVjail
p309
(I137534
I1
tp310
sVadopt
p311
(I26903
I9
tp312
sVprecis
p313
(I188578
I3
tp314
sS'credit'
p315
(I75875
I4
tp316
sVharass
p317
(I117723
I1
tp318
sS'karim'
p319
(I140531
I1
tp320
sVsmoke
p321
(I224992
I1
tp322
sVpermit
p323
(I183147
I6
tp324
sS'bunker'
p325
(I52851
I1
tp326
sS'tt'
p327
(I251081
I1
tp328
sVgesticul
p329
(I112695
I1
tp330
sVcontroversi
p331
(I71671
I1
tp332
sVtremend
p333
(I249691
I1
tp334
sS'golden'
p335
(I114143
I1
tp336
sVimposs
p337
(I127998
I3
tp338
sS'geylang'
p339
(I112873
I2
tp340
sS'ix'
p341
(I137259
I2
tp342
sS'straw'
p343
(I231358
I1
tp344
sVvicin
p345
(I258273
I2
tp346
sVnewspap
p347
(I165724
I5
tp348
sVstrap
p349
(I231302
I2
tp350
sS'brought'
p351
(I52284
I16
tp352
sS'thrust'
p353
(I246033
I3
tp354
sVattitud
p355
(I42739
I1
tp356
sVappris
p357
(I37619
I1
tp358
sS'moral'
p359
(I160862
I3
tp360
sVrestaur
p361
(I207938
I1
tp362
sS'movement'
p363
(I162000
I1
tp364
sS'801'
p365
(I19952
I1
tp366
sVprinter
p367
(I191007
I1
tp368
sS'total'
p369
(I248298
I15
tp370
sVcarelessli
p371
(I56110
I1
tp372
sVunit
p373
(I253816
I7
tp374
sVhighli
p375
(I121638
I7
tp376
sS'sexual'
p377
(I218530
I3
tp378
sVlotteri
p379
(I151021
I1
tp380
sVjuri
p381
(I139847
I3
tp382
sS'spoke'
p383
(I228068
I8
tp384
sS'would'
p385
(I269315
I24
tp386
sS'345'
p387
(I13596
I1
tp388
sVinjunct
p389
(I131746
I1
tp390
sVlorri
p391
(I150760
I3
tp392
sS'upset'
p393
(I255800
I1
tp394
sVbleed
p395
(I50082
I1
tp396
sVhereinbefor
p397
(I120551
I1
tp398
sS'program'
p399
(I192628
I2
tp400
sVcall
p401
(I54372
I15
tp402
sS'calm'
p403
(I54577
I2
tp404
sVpassport
p405
(I181437
I2
tp406
sVrecommend
p407
(I201580
I3
tp408
sVstrike
p409
(I231605
I2
tp410
sS'wiseman'
p411
(I266895
I1
tp412
sS'wayfoong'
p413
(I261178
I1
tp414
sS'type'
p415
(I251715
I9
tp416
sS'until'
p417
(I254904
I10
tp418
sVirregularli
p419
(I135624
I1
tp420
sS'beyond'
p421
(I49337
I11
tp422
sS'paperwork'
p423
(I179386
I1
tp424
sS'relay'
p425
(I204115
I1
tp426
sS'174'
p427
(I5104
I1
tp428
sVremark
p429
(I205060
I4
tp430
sVrelat
p431
(I203825
I16
tp432
sS'officio'
p433
(I172086
I1
tp434
sVnotic
p435
(I168118
I9
tp436
sVwheresoev
p437
(I263879
I1
tp438
sVwarn
p439
(I260587
I8
tp440
sS'98'
p441
(I20912
I2
tp442
sVexport
p443
(I101305
I3
tp444
sS'warm'
p445
(I260573
I1
tp446
sS'adult'
p447
(I27041
I2
tp448
sS'unstrap'
p449
(I254792
I1
tp450
sVdisentitl
p451
(I86670
I1
tp452
sVadjourn
p453
(I26489
I3
tp454
sS'90'
p455
(I20555
I1
tp456
sS'midst'
p457
(I158356
I2
tp458
sS'hold'
p459
(I122879
I18
tp460
sS'95'
p461
(I20720
I2
tp462
sS'94'
p463
(I20678
I1
tp464
sS's300'
p465
(I211396
I1
tp466
sS'must'
p467
(I162476
I20
tp468
sS'me'
p469
(I156242
I13
tp470
sS'1990'
p471
(I7354
I10
tp472
sS'1993'
p473
(I7737
I7
tp474
sS'1992'
p475
(I7629
I8
tp476
sS'ma'
p477
(I151751
I12
tp478
sS'1994'
p479
(I7833
I9
tp480
sVerr
p481
(I96808
I1
tp482
sS'1996'
p483
(I8097
I13
tp484
sS'1999'
p485
(I8560
I4
tp486
sS'1998'
p487
(I8450
I8
tp488
sS'work'
p489
(I269009
I10
tp490
sVconsciou
p491
(I68342
I2
tp492
sS'teochew'
p493
(I238948
I1
tp494
sVtc
p495
(I238051
I1
tp496
sVconceptu
p497
(I66667
I1
tp498
sS'locker'
p499
(I149901
I1
tp500
sS'norm'
p501
(I167210
I1
tp502
sS'ms'
p503
(I162100
I2
tp504
sS'mr'
p505
(I162042
I4
tp506
sVerl
p507
(I96794
I1
tp508
sS'akin'
p509
(I29964
I2
tp510
sS'my'
p511
(I162822
I22
tp512
sVtransgress
p513
(I249248
I1
tp514
sS'quarrel'
p515
(I197568
I2
tp516
sVoverrid
p517
(I177658
I1
tp518
sS'duck'
p519
(I90993
I1
tp520
sVpersuas
p521
(I183729
I1
tp522
sS'559'
p523
(I17361
I1
tp524
sVunassail
p525
(I252225
I1
tp526
sS'give'
p527
(I113082
I18
tp528
sS'household'
p529
(I123972
I1
tp530
sS'flung'
p531
(I107486
I1
tp532
sS'assent'
p533
(I41041
I2
tp534
sS'550'
p535
(I17292
I2
tp536
sVindic
p537
(I130433
I11
tp538
sVcautiou
p539
(I57472
I3
tp540
sVfrighten
p541
(I110355
I1
tp542
sVsurveyor
p543
(I235973
I1
tp544
sS'overheard'
p545
(I177616
I1
tp546
sVcaution
p547
(I57430
I3
tp548
sS'british'
p549
(I51953
I4
tp550
sVwant
p551
(I260394
I10
tp552
sVobstin
p553
(I169860
I1
tp554
sS'mohan'
p555
(I160091
I2
tp556
sVdiari
p557
(I84265
I3
tp558
sS'david'
p559
(I78301
I2
tp560
sS'attract'
p561
(I42767
I3
tp562
sS'defen'
p563
(I80448
I1
tp564
sS'motion'
p565
(I161693
I2
tp566
sS'171'
p567
(I5062
I1
tp568
sVenc
p569
(I94549
I1
tp570
sS'end'
p571
(I94700
I13
tp572
sVostens
p573
(I175950
I1
tp574
sS'ning'
p575
(I166303
I1
tp576
sS'eng'
p577
(I94959
I3
tp578
sVpolic
p579
(I186416
I16
tp580
sS'anguish'
p581
(I34443
I1
tp582
sVtravel
p583
(I249512
I5
tp584
sS'length'
p585
(I146534
I6
tp586
sS'hoh'
p587
(I122811
I1
tp588
sS'hoi'
p589
(I122825
I1
tp590
sS'56317'
p591
(I17403
I1
tp592
sS'how'
p593
(I124000
I24
tp594
sS'hot'
p595
(I123681
I1
tp596
sS'shred'
p597
(I221355
I1
tp598
sS'dawson'
p599
(I78370
I1
tp600
sVconfin
p601
(I67857
I5
tp602
sS'khiaw'
p603
(I141283
I1
tp604
sVenquiri
p605
(I95476
I4
tp606
sS'registrar'
p607
(I203289
I4
tp608
sVnegoti
p609
(I165023
I5
tp610
sS'borneman'
p611
(I50795
I1
tp612
sVconfid
p613
(I67816
I2
tp614
sS'lam'
p615
(I143370
I1
tp616
sS'ab113'
p617
(I21519
I1
tp618
sVrecogn
p619
(I201441
I5
tp620
sS'lai'
p621
(I143259
I4
tp622
sVmess
p623
(I157928
I1
tp624
sVchines
p625
(I59932
I6
tp626
sS'earlier'
p627
(I92261
I12
tp628
sVsubstanc
p629
(I233133
I10
tp630
sVbefor
p631
(I47350
I23
tp632
sS'wrong'
p633
(I269973
I13
tp634
sS'lay'
p635
(I144845
I7
tp636
sS'bedok'
p637
(I46830
I3
tp638
sS'lau'
p639
(I144353
I3
tp640
sVasset
p641
(I41272
I2
tp642
sS'law'
p643
(I144464
I24
tp644
sVhandphon
p645
(I117501
I2
tp646
sS'parallel'
p647
(I179664
I1
tp648
sVdemonstr
p649
(I81815
I5
tp650
sS'rada'
p651
(I198513
I1
tp652
sVmemori
p653
(I157209
I1
tp654
sVcharact
p655
(I58625
I3
tp656
sS'attempt'
p657
(I42382
I14
tp658
sS'bhuboni'
p659
(I49575
I1
tp660
sS'third'
p661
(I244476
I12
tp662
sS'chern'
p663
(I59535
I2
tp664
sVretort
p665
(I208472
I2
tp666
sVspous
p667
(I228257
I1
tp668
sVexclud
p669
(I99815
I4
tp670
sVdetent
p671
(I83605
I3
tp672
sVperform
p673
(I182813
I4
tp674
sVmaintain
p675
(I152680
I10
tp676
sS'green'
p677
(I115075
I2
tp678
sVwaitress
p679
(I260216
I1
tp680
sVincorpor
p681
(I129734
I3
tp682
sVenter
p683
(I95668
I10
tp684
sVexclus
p685
(I99871
I2
tp686
sS'1572'
p687
(I4501
I1
tp688
sS'516'
p689
(I16828
I1
tp690
sVorder
p691
(I175244
I22
tp692
sS'greed'
p693
(I115061
I1
tp694
sVorigin
p695
(I175800
I8
tp696
sVfortifi
p697
(I109097
I3
tp698
sVclaimant
p699
(I61901
I3
tp700
sS'pasir'
p701
(I181093
I2
tp702
sS'over'
p703
(I177394
I14
tp704
sVfall
p705
(I103448
I7
tp706
sS'senin'
p707
(I216262
I1
tp708
sVbecaus
p709
(I46406
I20
tp710
sVsurrend
p711
(I235862
I1
tp712
sVmodesti
p713
(I159954
I2
tp714
sS'handcuff'
p715
(I117417
I1
tp716
sVprivileg
p717
(I191390
I1
tp718
sVincid
p719
(I129102
I6
tp720
sVappar
p721
(I36023
I8
tp722
sS'carnal'
p723
(I56152
I1
tp724
sS'218'
p725
(I9539
I1
tp726
sS'nett'
p727
(I165283
I1
tp728
sVvari
p729
(I257195
I4
tp730
sS'digest'
p731
(I85187
I1
tp732
sS'cll'
p733
(I62819
I1
tp734
sVsignatori
p735
(I221912
I1
tp736
sVgentl
p737
(I112585
I1
tp738
sS'fit'
p739
(I106863
I4
tp740
sVbaile
p741
(I44777
I1
tp742
sVfix
p743
(I107086
I2
tp744
sVprospect
p745
(I194136
I4
tp746
sS'snatch'
p747
(I225060
I1
tp748
sS'crew'
p749
(I75945
I2
tp750
sS'407'
p751
(I14934
I1
tp752
sS'spoken'
p753
(I228176
I2
tp754
sVoffic
p755
(I171839
I15
tp756
sS'403'
p757
(I14878
I1
tp758
sS'402'
p759
(I14864
I1
tp760
sS'401'
p761
(I14850
I1
tp762
sVpersist
p763
(I183257
I3
tp764
sVcomprehens
p765
(I66379
I1
tp766
sVinexor
p767
(I130959
I1
tp768
sVcollieri
p769
(I64007
I1
tp770
sS'fin'
p771
(I105619
I1
tp772
sVperfunctorili
p773
(I182869
I1
tp774
sS'clr'
p775
(I63136
I1
tp776
sS'split'
p777
(I228054
I1
tp778
sS'then'
p779
(I241640
I22
tp780
sS'them'
p781
(I241264
I22
tp782
sVabsolv
p783
(I22872
I1
tp784
sVrecours
p785
(I201803
I3
tp786
sVimmor
p787
(I127204
I1
tp788
sVcorrobor
p789
(I73423
I5
tp790
sVproce
p791
(I191569
I6
tp792
sS'1344'
p793
(I3705
I1
tp794
sS'safe'
p795
(I211480
I2
tp796
sS'school'
p797
(I213876
I1
tp798
sVevidentiari
p799
(I98768
I2
tp800
sS'break'
p801
(I51637
I3
tp802
sS'4030'
p803
(I14892
I1
tp804
sS'1934'
p805
(I6079
I1
tp806
sVinescap
p807
(I130904
I1
tp808
sVpromis
p809
(I192820
I4
tp810
sS'they'
p811
(I243417
I22
tp812
sVinterrupt
p813
(I134343
I1
tp814
sS'yourself'
p815
(I271694
I1
tp816
sS'rental'
p817
(I205596
I1
tp818
sS'silver'
p819
(I222202
I2
tp820
sS'bank'
p821
(I44957
I8
tp822
sS'gloom'
p823
(I113715
I1
tp824
sVtendenc
p825
(I238753
I1
tp826
sS'weng'
p827
(I262228
I1
tp828
sS'40m'
p829
(I14962
I1
tp830
sS'ipc'
p831
(I135513
I1
tp832
sS'l'
p833
(I142867
I6
tp834
sVundermin
p835
(I252919
I2
tp836
sS'379'
p837
(I14050
I1
tp838
sS'378'
p839
(I14036
I1
tp840
sS'kasturchand'
p841
(I140629
I1
tp842
sVluca
p843
(I151600
I1
tp844
sS'each'
p845
(I91888
I19
tp846
sS'370'
p847
(I13994
I1
tp848
sS'went'
p849
(I262242
I16
tp850
sVoblig
p851
(I169586
I4
tp852
sVside
p853
(I221523
I11
tp854
sS'bupa'
p855
(I52865
I1
tp856
sVmean
p857
(I156436
I16
tp858
sVstevedor
p859
(I230275
I1
tp860
sVprohibit
p861
(I192696
I3
tp862
sS'bright'
p863
(I51856
I1
tp864
sS'mdm'
p865
(I156228
I1
tp866
sVcolleagu
p867
(I63816
I3
tp868
sS'mda'
p869
(I156200
I2
tp870
sS'stronger'
p871
(I231771
I2
tp872
sVcommonsens
p873
(I65273
I2
tp874
sS'392'
p875
(I14269
I2
tp876
sS'390'
p877
(I14242
I2
tp878
sS'397'
p879
(I14340
I1
tp880
sS'396'
p881
(I14325
I1
tp882
sS'395'
p883
(I14311
I1
tp884
sS'394'
p885
(I14297
I1
tp886
sS'jumato'
p887
(I139569
I1
tp888
sS'abundanti'
p889
(I22942
I1
tp890
sS'399'
p891
(I14368
I2
tp892
sS'398'
p893
(I14354
I1
tp894
sVcommiss
p895
(I64746
I9
tp896
sVcontend
p897
(I70246
I18
tp898
sVdepress
p899
(I82418
I1
tp900
sVsuspici
p901
(I236086
I4
tp902
sS'goh'
p903
(I114006
I7
tp904
sS'rr'
p905
(I210673
I1
tp906
sS'pbd'
p907
(I182017
I1
tp908
sVgoe
p909
(I113966
I3
tp910
sVnewli
p911
(I165668
I1
tp912
sS'crucial'
p913
(I76761
I6
tp914
sVdss
p915
(I90936
I1
tp916
sS'tomorrow'
p917
(I247732
I1
tp918
sVcontent
p919
(I70495
I12
tp920
sS're'
p921
(I199504
I11
tp922
sS'laid'
p923
(I143316
I3
tp924
sS'thamilarasan'
p925
(I239722
I1
tp926
sVreader
p927
(I200087
I1
tp928
sS'got'
p929
(I114444
I6
tp930
sS'hirer'
p931
(I122551
I1
tp932
sS'size'
p933
(I224318
I2
tp934
sS'judith'
p935
(I139365
I1
tp936
sVforti
p937
(I109083
I1
tp938
sS'bald'
p939
(I44915
I1
tp940
sS'c32'
p941
(I54191
I1
tp942
sS'gate'
p943
(I112089
I2
tp944
sVze
p945
(I271847
I1
tp946
sS'homework'
p947
(I123325
I1
tp948
sS'barrier'
p949
(I45272
I2
tp950
sS'parkway'
p951
(I179883
I1
tp952
sS'459'
p953
(I15628
I1
tp954
sVprecaut
p955
(I188441
I2
tp956
sVsituat
p957
(I224002
I9
tp958
sS'strata'
p959
(I231330
I1
tp960
sVomiss
p961
(I172308
I3
tp962
sS'standard'
p963
(I228917
I7
tp964
sS'622'
p965
(I18200
I1
tp966
sVuntruth
p967
(I255095
I1
tp968
sS'241'
p969
(I10470
I1
tp970
sS'240'
p971
(I10456
I1
tp972
sS'243'
p973
(I10484
I2
tp974
sS'freq'
p975
(I110189
I1
tp976
sS'249'
p977
(I10875
I2
tp978
sVafterthought
p979
(I28324
I2
tp980
sVperipher
p981
(I183065
I2
tp982
sVconvent
p983
(I71740
I2
tp984
sS'rindu'
p985
(I209686
I1
tp986
sVmalici
p987
(I153503
I2
tp988
sVenjoy
p989
(I95352
I1
tp990
sS'chiat'
p991
(I59659
I2
tp992
sVaccumul
p993
(I24290
I1
tp994
sVloui
p995
(I151076
I2
tp996
sVrenew
p997
(I205529
I3
tp998
sVunabl
p999
(I251979
I13
tp1000
sS'unknown'
p1001
(I253966
I4
tp1002
sS'shew'
p1003
(I220074
I1
tp1004
sS'won'
p1005
(I268536
I2
tp1006
sS'scheme'
p1007
(I213834
I1
tp1008
sS'9pm'
p1009
(I21037
I2
tp1010
sVconfus
p1011
(I68162
I4
tp1012
sVlicens
p1013
(I147877
I4
tp1014
sVthereund
p1015
(I243022
I2
tp1016
sS'edward'
p1017
(I92847
I1
tp1018
sS'rang'
p1019
(I199082
I3
tp1020
sS'yin'
p1021
(I271017
I1
tp1022
sVfruitless
p1023
(I110808
I1
tp1024
sS'kim'
p1025
(I141476
I1
tp1026
sS'hearsay'
p1027
(I119351
I1
tp1028
sVenterpris
p1029
(I95805
I2
tp1030
sVindepend
p1031
(I130228
I5
tp1032
sVwast
p1033
(I260834
I1
tp1034
sS'thereof'
p1035
(I242898
I6
tp1036
sS'system'
p1037
(I236445
I2
tp1038
sVrestrict
p1039
(I208047
I6
tp1040
sS'4400'
p1041
(I15377
I1
tp1042
sVinstruct
p1043
(I132881
I11
tp1044
sValreadi
p1045
(I31690
I10
tp1046
sS'hoon'
p1047
(I123476
I2
tp1048
sS'178'
p1049
(I5213
I2
tp1050
sS'bala'
p1051
(I44819
I1
tp1052
sVdisembark
p1053
(I86656
I1
tp1054
sS'175'
p1055
(I5118
I2
tp1056
sVagre
p1057
(I29222
I16
tp1058
sS'173'
p1059
(I5090
I1
tp1060
sVprimari
p1061
(I190600
I5
tp1062
sS'jja'
p1063
(I138034
I1
tp1064
sS'170'
p1065
(I5048
I1
tp1066
sS'1878'
p1067
(I5585
I1
tp1068
sS'lister'
p1069
(I149172
I1
tp1070
sVacquaint
p1071
(I24718
I5
tp1072
sS'desai'
p1073
(I82863
I1
tp1074
sVdefect
p1075
(I80434
I1
tp1076
sS'xii'
p1077
(I270316
I1
tp1078
sS'top'
p1079
(I248174
I3
tp1080
sS'teo'
p1081
(I238878
I5
tp1082
sVclaymor
p1083
(I62145
I1
tp1084
sVsometim
p1085
(I226380
I11
tp1086
sS'toh'
p1087
(I247520
I1
tp1088
sVnecessarili
p1089
(I164512
I10
tp1090
sS'master'
p1091
(I154884
I7
tp1092
sS'too'
p1093
(I247787
I8
tp1094
sVsimilarli
p1095
(I222463
I10
tp1096
sS'upshot'
p1097
(I255814
I2
tp1098
sS'gilbert'
p1099
(I112972
I1
tp1100
sS'john'
p1101
(I138161
I5
tp1102
sVduress
p1103
(I91474
I2
tp1104
sS'653'
p1105
(I18392
I1
tp1106
sS'murder'
p1107
(I162377
I4
tp1108
sVconstabulari
p1109
(I69390
I1
tp1110
sVescort
p1111
(I96986
I3
tp1112
sS'toon'
p1113
(I248160
I1
tp1114
sVastair
p1115
(I41860
I1
tp1116
sS'lumber'
p1117
(I151642
I1
tp1118
sS'took'
p1119
(I247895
I19
tp1120
sVsolicitor
p1121
(I225730
I4
tp1122
sVlegislatur
p1123
(I146356
I2
tp1124
sS'compressor'
p1125
(I66393
I1
tp1126
sVincur
p1127
(I129952
I4
tp1128
sS'serial'
p1129
(I217330
I2
tp1130
sS'somewhat'
p1131
(I226533
I7
tp1132
sS'evil'
p1133
(I98795
I1
tp1134
sVcampl
p1135
(I54851
I1
tp1136
sS'satco'
p1137
(I212641
I1
tp1138
sS'peculiar'
p1139
(I182168
I1
tp1140
sS'p53'
p1141
(I178679
I1
tp1142
sS'past'
p1143
(I181465
I5
tp1144
sVliter
p1145
(I149214
I3
tp1146
sVunduli
p1147
(I253401
I1
tp1148
sVsilli
p1149
(I222188
I1
tp1150
sS'herewith'
p1151
(I120579
I1
tp1152
sS'naim'
p1153
(I163265
I1
tp1154
sVprovid
p1155
(I194655
I13
tp1156
sVdivert
p1157
(I88171
I1
tp1158
sVdiamorphin
p1159
(I84238
I2
tp1160
sS'tree'
p1161
(I249664
I2
tp1162
sVhors
p1163
(I123572
I2
tp1164
sS'yusoff'
p1165
(I271763
I1
tp1166
sVunbear
p1167
(I252335
I1
tp1168
sS'shower'
p1169
(I221188
I1
tp1170
sS'matter'
p1171
(I155348
I18
tp1172
sVcongratulatori
p1173
(I68218
I1
tp1174
sS'chee'
p1175
(I59301
I2
tp1176
sS'guilt'
p1177
(I115821
I4
tp1178
sViron
p1179
(I135555
I2
tp1180
sVminut
p1181
(I159006
I4
tp1182
sS'prone'
p1183
(I192903
I1
tp1184
sVbriefli
p1185
(I51829
I2
tp1186
sS'stacey'
p1187
(I228546
I1
tp1188
sVprovis
p1189
(I194832
I11
tp1190
sVexplicitli
p1191
(I101250
I2
tp1192
sVtightli
p1193
(I246401
I1
tp1194
sS'fashion'
p1195
(I103953
I3
tp1196
sS'behavior'
p1197
(I47920
I1
tp1198
sS'jogesh'
p1199
(I138133
I1
tp1200
sS'ran'
p1201
(I198998
I5
tp1202
sVpertain
p1203
(I183743
I4
tp1204
sS'ram'
p1205
(I198873
I2
tp1206
sS'mind'
p1207
(I158655
I13
tp1208
sS'mine'
p1209
(I158831
I3
tp1210
sVmedicin
p1211
(I156986
I1
tp1212
sVhypothet
p1213
(I125053
I1
tp1214
sS'chen'
p1215
(I59383
I1
tp1216
sVhug
p1217
(I124763
I1
tp1218
sS'khong'
p1219
(I141311
I1
tp1220
sS'manner'
p1221
(I154217
I11
tp1222
sVincrement
p1223
(I129884
I1
tp1224
sVinfring
p1225
(I131401
I2
tp1226
sS'seen'
p1227
(I215574
I10
tp1228
sVseem
p1229
(I215437
I10
tp1230
sS'seek'
p1231
(I215342
I7
tp1232
sVanchorag
p1233
(I33905
I1
tp1234
sS'abroad'
p1235
(I22651
I1
tp1236
sS'strength'
p1237
(I231413
I2
tp1238
sS'1968'
p1239
(I6600
I4
tp1240
sS'1969'
p1241
(I6656
I4
tp1242
sVunresolv
p1243
(I254655
I1
tp1244
sVdisburs
p1245
(I85908
I1
tp1246
sS'baldev'
p1247
(I44929
I1
tp1248
sS'1965'
p1249
(I6520
I3
tp1250
sS'1966'
p1251
(I6560
I3
tp1252
sVespeci
p1253
(I97040
I5
tp1254
sS'1960'
p1255
(I6452
I1
tp1256
sVsaunder
p1257
(I212905
I1
tp1258
sS'1962'
p1259
(I6466
I2
tp1260
sS'1963'
p1261
(I6493
I2
tp1262
sS'chest'
p1263
(I59576
I2
tp1264
sVclient
p1265
(I62748
I4
tp1266
sS'hatch'
p1267
(I117875
I1
tp1268
sS'transmit'
p1269
(I249357
I1
tp1270
sS'magnum'
p1271
(I152447
I2
tp1272
sVremuner
p1273
(I205391
I1
tp1274
sS'rider'
p1275
(I209357
I3
tp1276
sS'davidson'
p1277
(I78328
I1
tp1278
sVwherebi
p1279
(I263838
I2
tp1280
sS'blue'
p1281
(I50330
I2
tp1282
sVpnr
p1283
(I186047
I1
tp1284
sVinsur
p1285
(I133157
I4
tp1286
sVconsum
p1287
(I69813
I2
tp1288
sVplenti
p1289
(I185950
I1
tp1290
sS'shall'
p1291
(I219320
I16
tp1292
sS'bruce'
p1293
(I52544
I1
tp1294
sS'object'
p1295
(I169462
I9
tp1296
sS'ramachandran'
p1297
(I198914
I1
tp1298
sVpanel
p1299
(I179218
I1
tp1300
sS'gt'
p1301
(I115547
I1
tp1302
sVmarin
p1303
(I154648
I1
tp1304
sS'nordin'
p1305
(I167196
I1
tp1306
sVtenabl
p1307
(I238682
I1
tp1308
sS'ipsa'
p1309
(I135527
I1
tp1310
sS'mouth'
p1311
(I161890
I2
tp1312
sS'addict'
p1313
(I25992
I1
tp1314
sS'letter'
p1315
(I147165
I7
tp1316
sS'khoo'
p1317
(I141325
I3
tp1318
sVeagl
p1319
(I92151
I1
tp1320
sS'ngee'
p1321
(I166066
I1
tp1322
sS'the'
p1323
(I240441
I25
tp1324
sS'grave'
p1325
(I114870
I2
tp1326
sS'kotayya'
p1327
(I142661
I1
tp1328
sVsurround
p1329
(I235876
I4
tp1330
sVorderli
p1331
(I175552
I1
tp1332
sS'johan'
p1333
(I138147
I1
tp1334
sS'don'
p1335
(I89063
I4
tp1336
sVunexplain
p1337
(I253457
I1
tp1338
sS'332'
p1339
(I13350
I1
tp1340
sS'leong'
p1341
(I146751
I4
tp1342
sS'professor'
p1343
(I192547
I2
tp1344
sS'camp'
p1345
(I54837
I1
tp1346
sVflow
p1347
(I107444
I1
tp1348
sS'dennison'
p1349
(I82105
I1
tp1350
sS'sgca'
p1351
(I218912
I5
tp1352
sVdoe
p1353
(I88846
I13
tp1354
sS'lacuna'
p1355
(I143175
I1
tp1356
sVdeclar
p1357
(I80048
I5
tp1358
sS'joon'
p1359
(I138545
I4
tp1360
sVapolog
p1361
(I35873
I1
tp1362
sS'teck'
p1363
(I238204
I2
tp1364
sS'khattar'
p1365
(I141216
I2
tp1366
sS'scotch'
p1367
(I213987
I1
tp1368
sS'sum'
p1369
(I234576
I11
tp1370
sS'came'
p1371
(I54618
I16
tp1372
sVdisown
p1373
(I87029
I1
tp1374
sVdevastatingli
p1375
(I83988
I1
tp1376
sVstud
p1377
(I231894
I1
tp1378
sS'kala'
p1379
(I140448
I1
tp1380
sS'357'
p1381
(I13774
I1
tp1382
sValight
p1383
(I30289
I3
tp1384
sS'queen'
p1385
(I197664
I2
tp1386
sVtransluc
p1387
(I249316
I1
tp1388
sVtranscrib
p1389
(I249193
I1
tp1390
sS'104'
p1391
(I2119
I2
tp1392
sVopenli
p1393
(I174063
I1
tp1394
sS'radio'
p1395
(I198542
I1
tp1396
sS'asia'
p1397
(I40460
I1
tp1398
sVdiminish
p1399
(I85229
I1
tp1400
sS'd6'
p1401
(I77601
I1
tp1402
sS'parang'
p1403
(I179692
I1
tp1404
sS'd4'
p1405
(I77573
I1
tp1406
sS'd5'
p1407
(I77587
I1
tp1408
sS'd2'
p1409
(I77559
I1
tp1410
sS'anandan'
p1411
(I33877
I1
tp1412
sS'5500'
p1413
(I17319
I1
tp1414
sS'd1'
p1415
(I77545
I1
tp1416
sVinvolv
p1417
(I135294
I16
tp1418
sVdespit
p1419
(I83221
I10
tp1420
sS'690'
p1421
(I18667
I1
tp1422
sVacquit
p1423
(I24841
I2
tp1424
sS'latent'
p1425
(I143985
I2
tp1426
sS'yeo'
p1427
(I270754
I2
tp1428
sS'spite'
p1429
(I228040
I1
tp1430
sS'695'
p1431
(I18681
I1
tp1432
sS'herself'
p1433
(I120648
I5
tp1434
sVexplain
p1435
(I100930
I11
tp1436
sS'699'
p1437
(I18709
I1
tp1438
sS'siew'
p1439
(I221706
I2
tp1440
sVcoomaraswami
p1441
(I72357
I1
tp1442
sVnews
p1443
(I165682
I2
tp1444
sS'540'
p1445
(I17222
I1
tp1446
sVbusi
p1447
(I53116
I9
tp1448
sS'hri'
p1449
(I124612
I1
tp1450
sVexplic
p1451
(I101236
I1
tp1452
sS'duffryn'
p1453
(I91170
I1
tp1454
sS'constant'
p1455
(I69404
I2
tp1456
sS'meng'
p1457
(I157293
I5
tp1458
sVcaswel
p1459
(I56932
I1
tp1460
sS'do'
p1461
(I88363
I20
tp1462
sS'incorrect'
p1463
(I129774
I1
tp1464
sVrajagop
p1465
(I198818
I1
tp1466
sS'wide'
p1467
(I266138
I2
tp1468
sS'453h'
p1469
(I15586
I1
tp1470
sS'cooper'
p1471
(I72371
I1
tp1472
sVlikewis
p1473
(I148548
I2
tp1474
sVstop
p1475
(I230768
I12
tp1476
sS'7564'
p1477
(I19537
I1
tp1478
sVcompli
p1479
(I66199
I5
tp1480
sVda
p1481
(I77615
I2
tp1482
sS'platt'
p1483
(I185482
I1
tp1484
sVconfisc
p1485
(I68078
I1
tp1486
sS'h'
p1487
(I116125
I3
tp1488
sS'120'
p1489
(I3094
I1
tp1490
sVhighland
p1491
(I121624
I1
tp1492
sVreport
p1493
(I206062
I14
tp1494
sS'nathan'
p1495
(I163900
I3
tp1496
sS'labelpro'
p1497
(I142979
I1
tp1498
sS'tsang'
p1499
(I251054
I2
tp1500
sS'parambir'
p1501
(I179678
I1
tp1502
sVtranspir
p1503
(I249385
I4
tp1504
sVrandal
p1505
(I199067
I1
tp1506
sS'hall'
p1507
(I116981
I1
tp1508
sVpufferi
p1509
(I195579
I1
tp1510
sS'pearson'
p1511
(I182127
I1
tp1512
sVbyle
p1513
(I54069
I1
tp1514
sVbhattacharje
p1515
(I49505
I1
tp1516
sS'bye'
p1517
(I54055
I1
tp1518
sS'public'
p1519
(I195261
I20
tp1520
sS'414'
p1521
(I15044
I1
tp1522
sS'bag'
p1523
(I44638
I7
tp1524
sS'416'
p1525
(I15058
I1
tp1526
sS'410'
p1527
(I15030
I1
tp1528
sS'rival'
p1529
(I209866
I1
tp1530
sS'tug'
p1531
(I251136
I1
tp1532
sVlinguist
p1533
(I149021
I1
tp1534
sVsteal
p1535
(I230067
I2
tp1536
sS'steam'
p1537
(I230094
I1
tp1538
sVrespond
p1539
(I207335
I22
tp1540
sS'monterey'
p1541
(I160490
I1
tp1542
sS'human'
p1543
(I124805
I2
tp1544
sVunfavour
p1545
(I253555
I2
tp1546
sS'ngiam'
p1547
(I166080
I1
tp1548
sVhonestli
p1549
(I123379
I2
tp1550
sS'pile'
p1551
(I184573
I1
tp1552
sVresist
p1553
(I206973
I1
tp1554
sS'num'
p1555
(I168873
I4
tp1556
sVmandatori
p1557
(I153889
I6
tp1558
sVresult
p1559
(I208129
I15
tp1560
sVrespons
p1561
(I207640
I13
tp1562
sVfail
p1563
(I102922
I14
tp1564
sS'223'
p1565
(I9812
I1
tp1566
sS'bee'
p1567
(I46911
I4
tp1568
sS'nub'
p1569
(I168845
I1
tp1570
sVunintent
p1571
(I253747
I1
tp1572
sS'best'
p1573
(I48977
I4
tp1574
sS'subject'
p1575
(I232060
I14
tp1576
sS'pete'
p1577
(I183881
I1
tp1578
sVawar
p1579
(I43703
I9
tp1580
sS'00'
p1581
(I201
I25
tp1582
sS'said'
p1583
(I211631
I24
tp1584
sS'06'
p1585
(I1125
I1
tp1586
sS'07'
p1587
(I1167
I3
tp1588
sS'04'
p1589
(I958
I4
tp1590
sS'05'
p1591
(I1028
I5
tp1592
sVfli
p1593
(I107332
I1
tp1594
sS'08'
p1595
(I1221
I7
tp1596
sS'09'
p1597
(I1330
I2
tp1598
sS'causeway'
p1599
(I57402
I1
tp1600
sVdiscoveri
p1601
(I86358
I3
tp1602
sVinconsequenti
p1603
(I129597
I2
tp1604
sS'365'
p1605
(I13896
I1
tp1606
sVfigur
p1607
(I105444
I2
tp1608
sVoutstand
p1609
(I177354
I3
tp1610
sS'yew'
p1611
(I270946
I1
tp1612
sVcoloni
p1613
(I64076
I1
tp1614
sS'366'
p1615
(I13910
I1
tp1616
sS'drawn'
p1617
(I90193
I10
tp1618
sS'92'
p1619
(I20651
I2
tp1620
sS'ocbc'
p1621
(I170255
I1
tp1622
sS'approach'
p1623
(I37633
I16
tp1624
sS'ahhhh'
p1625
(I29729
I1
tp1626
sVattribut
p1627
(I42807
I2
tp1628
sVinabl
p1629
(I128812
I1
tp1630
sVaccord
p1631
(I23583
I15
tp1632
sS'men'
p1633
(I157223
I4
tp1634
sS'wb'
p1635
(I261192
I1
tp1636
sS'extend'
p1637
(I101619
I6
tp1638
sS'rutland'
p1639
(I211003
I1
tp1640
sS'128'
p1641
(I3320
I1
tp1642
sVemigr
p1643
(I93948
I1
tp1644
sS'lover'
p1645
(I151118
I1
tp1646
sS'weak'
p1647
(I261429
I2
tp1648
sS'406a'
p1649
(I14920
I1
tp1650
sS'theresa'
p1651
(I242994
I1
tp1652
sS'381'
p1653
(I14146
I1
tp1654
sS'382'
p1655
(I14160
I1
tp1656
sVsandal
p1657
(I212571
I1
tp1658
sS'here'
p1659
(I120346
I12
tp1660
sS'386'
p1661
(I14174
I2
tp1662
sVintox
p1663
(I134844
I2
tp1664
sS'carbon'
p1665
(I55875
I2
tp1666
sVadvertis
p1667
(I27429
I2
tp1668
sVdebt
p1669
(I79122
I4
tp1670
sS'aluminium'
p1671
(I32557
I2
tp1672
sVkitchen
p1673
(I141641
I3
tp1674
sVunfound
p1675
(I253651
I1
tp1676
sS'protect'
p1677
(I194220
I8
tp1678
sVaccident
p1679
(I23430
I2
tp1680
sVeasi
p1681
(I92465
I1
tp1682
sS'irregular'
p1683
(I135582
I3
tp1684
sVterrenc
p1685
(I239292
I1
tp1686
sS'fault'
p1687
(I104197
I6
tp1688
sVill
p1689
(I126628
I3
tp1690
sVreadili
p1691
(I200157
I2
tp1692
sVscrutin
p1693
(I214109
I2
tp1694
sS'against'
p1695
(I28610
I25
tp1696
sS'lunar'
p1697
(I151656
I1
tp1698
sS'ilr'
p1699
(I126862
I2
tp1700
sVmisunderstand
p1701
(I159431
I2
tp1702
sVfutil
p1703
(I111664
I2
tp1704
sVcountri
p1705
(I74564
I1
tp1706
sVmatrimoni
p1707
(I155334
I1
tp1708
sVcompromis
p1709
(I66434
I1
tp1710
sS'and'
p1711
(I33959
I25
tp1712
sVskill
p1713
(I224415
I3
tp1714
sVassur
p1715
(I41806
I3
tp1716
sS'tong'
p1717
(I247746
I2
tp1718
sS'cno'
p1719
(I63191
I1
tp1720
sS'sullivan'
p1721
(I234548
I1
tp1722
sS'had'
p1723
(I116478
I25
tp1724
sVexcess
p1725
(I99606
I11
tp1726
sS'2nd'
p1727
(I12255
I2
tp1728
sVguin
p1729
(I116097
I1
tp1730
sS'97'
p1731
(I20803
I7
tp1732
sVheadquart
p1733
(I118831
I2
tp1734
sS'117'
p1735
(I2792
I1
tp1736
sVinfirm
p1737
(I131140
I1
tp1738
sS'worsley'
p1739
(I269287
I1
tp1740
sS'250'
p1741
(I11079
I2
tp1742
sS'trust'
p1743
(I250892
I3
tp1744
sVassum
p1745
(I41658
I8
tp1746
sVsummar
p1747
(I234729
I1
tp1748
sS'254'
p1749
(I11120
I1
tp1750
sS'speak'
p1751
(I227316
I9
tp1752
sVliabil
p1753
(I147400
I7
tp1754
sS'bathroom'
p1755
(I45711
I1
tp1756
sVlight
p1757
(I148209
I8
tp1758
sVindebt
p1759
(I130201
I2
tp1760
sS'wright'
p1761
(I269723
I1
tp1762
sS'union'
p1763
(I253775
I1
tp1764
sVdiscontinu
p1765
(I86195
I1
tp1766
sVpatch
p1767
(I181548
I1
tp1768
sS'9th'
p1769
(I21064
I2
tp1770
sS'three'
p1771
(I245424
I18
tp1772
sS'been'
p1773
(I46981
I23
tp1774
sVspecul
p1775
(I227780
I1
tp1776
sVrevenu
p1777
(I208899
I2
tp1778
sS'beer'
p1779
(I47323
I2
tp1780
sS'much'
p1781
(I162127
I11
tp1782
sVunjustifi
p1783
(I253939
I2
tp1784
sS'interest'
p1785
(I133777
I14
tp1786
sVadvers
p1787
(I27291
I9
tp1788
sS'452g'
p1789
(I15572
I1
tp1790
sS'452e'
p1791
(I15558
I1
tp1792
sS'452d'
p1793
(I15544
I1
tp1794
sS'pro'
p1795
(I191405
I1
tp1796
sVhesit
p1797
(I120717
I4
tp1798
sS'threw'
p1799
(I245690
I2
tp1800
sS'life'
p1801
(I148073
I6
tp1802
sVregul
p1803
(I203386
I3
tp1804
sS'246429'
p1805
(I10637
I1
tp1806
sS'pw5'
p1807
(I197058
I1
tp1808
sS'chua'
p1809
(I60482
I4
tp1810
sVsuppress
p1811
(I235516
I1
tp1812
sS'devlin'
p1813
(I84099
I2
tp1814
sVdismiss
p1815
(I86781
I16
tp1816
sS'worker'
p1817
(I269147
I4
tp1818
sS'246421'
p1819
(I10609
I1
tp1820
sVani
p1821
(I34457
I24
tp1822
sVblindli
p1823
(I50110
I1
tp1824
sS'lift'
p1825
(I148182
I2
tp1826
sS'169'
p1827
(I4858
I1
tp1828
sVsatisfactorili
p1829
(I212738
I1
tp1830
sVpredic
p1831
(I188713
I1
tp1832
sS'164'
p1833
(I4789
I1
tp1834
sS'165'
p1835
(I4803
I1
tp1836
sS'309'
p1837
(I12879
I1
tp1838
sS'167'
p1839
(I4831
I2
tp1840
sS'160'
p1841
(I4707
I2
tp1842
sVovertak
p1843
(I177686
I2
tp1844
sVdavi
p1845
(I78287
I1
tp1846
sS'163'
p1847
(I4775
I1
tp1848
sS'unsold'
p1849
(I254723
I2
tp1850
sVident
p1851
(I125517
I7
tp1852
sS'tank'
p1853
(I237669
I1
tp1854
sS'thenceforth'
p1855
(I241949
I1
tp1856
sVitinerari
p1857
(I136973
I1
tp1858
sVaffirm
p1859
(I27785
I4
tp1860
sS'hat'
p1861
(I117861
I1
tp1862
sVservic
p1863
(I217686
I8
tp1864
sVproperti
p1865
(I193271
I10
tp1866
sVlessen
p1867
(I147028
I2
tp1868
sVcommerci
p1869
(I64706
I3
tp1870
sS'slr'
p1871
(I224677
I9
tp1872
sS'air'
p1873
(I29852
I4
tp1874
sVemploy
p1875
(I94165
I10
tp1876
sS'near'
p1877
(I164227
I2
tp1878
sVmarriag
p1879
(I154828
I1
tp1880
sS'serai'
p1881
(I217150
I1
tp1882
sVoccas
p1883
(I170269
I12
tp1884
sS'aid'
p1885
(I29785
I2
tp1886
sS'gave'
p1887
(I112157
I17
tp1888
sVanchor
p1889
(I33891
I1
tp1890
sS'1094'
p1891
(I2270
I1
tp1892
sS'seven'
p1893
(I218217
I6
tp1894
sS'cane'
p1895
(I55171
I4
tp1896
sVlightli
p1897
(I148317
I1
tp1898
sS'metropolitan'
p1899
(I158218
I1
tp1900
sS'is'
p1901
(I135735
I25
tp1902
sS'73b'
p1903
(I19429
I1
tp1904
sS'it'
p1905
(I136490
I25
tp1906
sS'iv'
p1907
(I137177
I6
tp1908
sS'ii'
p1909
(I126357
I13
tp1910
sVplayer
p1911
(I185647
I1
tp1912
sVelicit
p1913
(I93758
I2
tp1914
sS'brake'
p1915
(I51445
I1
tp1916
sS'briyani'
p1917
(I52009
I1
tp1918
sS'in'
p1919
(I128434
I25
tp1920
sS'volenti'
p1921
(I259399
I1
tp1922
sS'vendor'
p1923
(I257616
I2
tp1924
sS'ie'
p1925
(I125816
I8
tp1926
sVsever
p1927
(I218326
I13
tp1928
sS'if'
p1929
(I125924
I24
tp1930
sS'hong'
p1931
(I123406
I4
tp1932
sS'pawnshop'
p1933
(I181713
I2
tp1934
sVreceiv
p1935
(I201126
I13
tp1936
sVsuggest
p1937
(I234248
I13
tp1938
sS'make'
p1939
(I152871
I20
tp1940
sVbookmak
p1941
(I50660
I1
tp1942
sVwound
p1943
(I269655
I1
tp1944
sS'airport'
p1945
(I29936
I2
tp1946
sS'forehead'
p1947
(I108626
I1
tp1948
sS'complex'
p1949
(I66158
I2
tp1950
sS'ammal'
p1951
(I33064
I1
tp1952
sVjungl
p1953
(I139792
I1
tp1954
sS'dicta'
p1955
(I84319
I1
tp1956
sVcomplet
p1957
(I65981
I13
tp1958
sS'wheel'
p1959
(I263109
I1
tp1960
sVsteer
p1961
(I230108
I1
tp1962
sS'joki'
p1963
(I138421
I1
tp1964
sVraid
p1965
(I198584
I1
tp1966
sVevid
p1967
(I98439
I22
tp1968
sS'social'
p1969
(I225437
I4
tp1970
sS'rail'
p1971
(I198599
I2
tp1972
sS'zaobao'
p1973
(I271833
I1
tp1974
sS'hand'
p1975
(I117090
I21
tp1976
sVfairli
p1977
(I103337
I4
tp1978
sVrais
p1979
(I198626
I12
tp1980
sVmuniandi
p1981
(I162363
I1
tp1982
sS'ownership'
p1983
(I178210
I3
tp1984
sS'azlan'
p1985
(I44007
I1
tp1986
sS'patani'
p1987
(I181534
I1
tp1988
sVtraffick
p1989
(I249008
I4
tp1990
sVinsuran
p1991
(I133216
I1
tp1992
sVqualif
p1993
(I197322
I4
tp1994
sS'rebut'
p1995
(I200905
I4
tp1996
sS'kept'
p1997
(I141010
I7
tp1998
sVundesir
p1999
(I253248
I1
tp2000
sS'1979'
p2001
(I6904
I1
tp2002
sS'1977'
p2003
(I6848
I4
tp2004
sS'1976'
p2005
(I6821
I2
tp2006
sVthu
p2007
(I246073
I12
tp2008
sS'1974'
p2009
(I6793
I1
tp2010
sS'1973'
p2011
(I6766
I2
tp2012
sVtaint
p2013
(I236692
I4
tp2014
sS'1970'
p2015
(I6712
I3
tp2016
sS'tho'
p2017
(I244679
I1
tp2018
sS'contact'
p2019
(I69880
I7
tp2020
sVshortli
p2021
(I220518
I4
tp2022
sS'subpoena'
p2023
(I232733
I1
tp2024
sVthi
p2025
(I243732
I25
tp2026
sS'mother'
p2027
(I161611
I6
tp2028
sVprogramm
p2029
(I192655
I2
tp2030
sS'jean'
p2031
(I137826
I1
tp2032
sS'800'
p2033
(I19938
I1
tp2034
sS'operandi'
p2035
(I174299
I1
tp2036
sVlegisl
p2037
(I146287
I5
tp2038
sS'left'
p2039
(I145903
I17
tp2040
sVcounti
p2041
(I74523
I2
tp2042
sVidentifi
p2043
(I125639
I13
tp2044
sVindign
p2045
(I130586
I1
tp2046
sS'just'
p2047
(I139984
I7
tp2048
sS'falsehood'
p2049
(I103652
I1
tp2050
sVcurios
p2051
(I77160
I1
tp2052
sVelabor
p2053
(I93510
I2
tp2054
sS'yee'
p2055
(I270726
I1
tp2056
sS'unfair'
p2057
(I253471
I4
tp2058
sS'mid'
p2059
(I158300
I1
tp2060
sVbeset
p2061
(I48907
I1
tp2062
sS'via'
p2063
(I258217
I1
tp2064
sS'1375'
p2065
(I3842
I1
tp2066
sVvictim
p2067
(I258300
I8
tp2068
sS'tat'
p2069
(I237819
I1
tp2070
sVcomput
p2071
(I66462
I1
tp2072
sVaccuraci
p2073
(I24344
I2
tp2074
sVcarrol
p2075
(I56384
I1
tp2076
sS'yet'
p2077
(I270809
I10
tp2078
sVlanguag
p2079
(I143521
I5
tp2080
sVprevious
p2081
(I190390
I4
tp2082
sVmetropoli
p2083
(I158204
I1
tp2084
sS'hai'
p2085
(I116842
I1
tp2086
sS'hak'
p2087
(I116885
I1
tp2088
sS'han'
p2089
(I117050
I3
tp2090
sS'1772'
p2091
(I5199
I1
tp2092
sVinterfer
p2093
(I133973
I3
tp2094
sVdeterr
p2095
(I83891
I5
tp2096
sVdeclin
p2097
(I80117
I2
tp2098
sS'royal'
p2099
(I210659
I1
tp2100
sVenunci
p2101
(I96230
I3
tp2102
sVtrespass
p2103
(I249719
I1
tp2104
sS'5m'
p2105
(I17679
I2
tp2106
sVcompart
p2107
(I65537
I1
tp2108
sVshout
p2109
(I220863
I3
tp2110
sVcontraven
p2111
(I71412
I3
tp2112
sS'board'
p2113
(I50358
I7
tp2114
sS'prison'
p2115
(I191157
I7
tp2116
sVels
p2117
(I93785
I3
tp2118
sS'save'
p2119
(I212919
I9
tp2120
sS'5a'
p2121
(I17651
I1
tp2122
sS'haw'
p2123
(I118259
I2
tp2124
sS'telok'
p2125
(I238531
I1
tp2126
sVapplic
p2127
(I37261
I17
tp2128
sVsmuggl
p2129
(I225020
I3
tp2130
sVmeasur
p2131
(I156808
I6
tp2132
sVpreserv
p2133
(I189618
I1
tp2134
sVdisposit
p2135
(I87223
I2
tp2136
sS'325'
p2137
(I13238
I1
tp2138
sS'greatest'
p2139
(I115047
I1
tp2140
sS'khoon'
p2141
(I141366
I1
tp2142
sS'rahmah'
p2143
(I198556
I1
tp2144
sS'rahman'
p2145
(I198570
I1
tp2146
sS'background'
p2147
(I44475
I7
tp2148
sVuncorrobor
p2149
(I252487
I2
tp2150
sVunten
p2151
(I254862
I1
tp2152
sS'burnt'
p2153
(I53088
I1
tp2154
sS'328'
p2155
(I13252
I1
tp2156
sVinadmiss
p2157
(I128950
I1
tp2158
sVapart
p2159
(I35804
I5
tp2160
sVavenu
p2161
(I43453
I5
tp2162
sVherebi
p2163
(I120509
I1
tp2164
sS'59'
p2165
(I17554
I1
tp2166
sVspecif
p2167
(I227562
I6
tp2168
sVgift
p2169
(I112915
I4
tp2170
sVarbitrari
p2171
(I38193
I1
tp2172
sS'hsing'
p2173
(I124626
I1
tp2174
sVcontradict
p2175
(I71042
I7
tp2176
sS'57'
p2177
(I17445
I3
tp2178
sS'56'
p2179
(I17375
I1
tp2180
sS'manual'
p2181
(I154370
I2
tp2182
sS'50'
p2183
(I16483
I5
tp2184
sS'53'
p2185
(I17071
I3
tp2186
sS'52'
p2187
(I16882
I3
tp2188
sS'537'
p2189
(I17152
I1
tp2190
sS'55'
p2191
(I17236
I4
tp2192
sS'madhya'
p2193
(I152323
I1
tp2194
sS'533'
p2195
(I17138
I1
tp2196
sVarmi
p2197
(I39273
I1
tp2198
sS'night'
p2199
(I166123
I9
tp2200
sVassidu
p2201
(I41300
I1
tp2202
sVunnecessari
p2203
(I254366
I4
tp2204
sS'webb'
p2205
(I261565
I1
tp2206
sS'attorney'
p2207
(I42753
I1
tp2208
sVright
p2209
(I209411
I17
tp2210
sS'old'
p2211
(I172213
I7
tp2212
sS'deal'
p2213
(I78714
I13
tp2214
sS'salim'
p2215
(I212117
I2
tp2216
sVvigor
p2217
(I258768
I3
tp2218
sS'51'
p2219
(I16758
I4
tp2220
sVinterv
p2221
(I134371
I1
tp2222
sVexoner
p2223
(I100493
I1
tp2224
sS'deaf'
p2225
(I78700
I1
tp2226
sS'maxim'
p2227
(I155614
I4
tp2228
sS'dead'
p2229
(I78659
I2
tp2230
sVrehabilit
p2231
(I203468
I1
tp2232
sS'10th'
p2233
(I2407
I1
tp2234
sVborn
p2235
(I50755
I3
tp2236
sVintern
p2237
(I134068
I5
tp2238
sS'202'
p2239
(I9223
I2
tp2240
sVmishandl
p2241
(I159225
I1
tp2242
sS'dear'
p2243
(I78973
I2
tp2244
sVimportantli
p2245
(I127754
I2
tp2246
sS'indirect'
p2247
(I130600
I3
tp2248
sVguess
p2249
(I115671
I3
tp2250
sVtransmiss
p2251
(I249330
I2
tp2252
sS'214'
p2253
(I9497
I1
tp2254
sS'1975'
p2255
(I6807
I1
tp2256
sVmisrepres
p2257
(I159281
I1
tp2258
sVdisapprov
p2259
(I85841
I3
tp2260
sS'for'
p2261
(I108043
I25
tp2262
sS'bottom'
p2263
(I51209
I2
tp2264
sS'ear'
p2265
(I92165
I1
tp2266
sVfidel
p2267
(I105336
I1
tp2268
sS'pavement'
p2269
(I181671
I1
tp2270
sVintercours
p2271
(I133749
I2
tp2272
sVflounder
p2273
(I107430
I1
tp2274
sS'cnb'
p2275
(I63164
I2
tp2276
sS'1496m'
p2277
(I4213
I1
tp2278
sS'208'
p2279
(I9264
I1
tp2280
sS'nicholson'
p2281
(I166094
I1
tp2282
sVconvict
p2283
(I71985
I17
tp2284
sS'foo'
p2285
(I107892
I4
tp2286
sS'424'
p2287
(I15170
I1
tp2288
sS'427'
p2289
(I15198
I1
tp2290
sS'426'
p2291
(I15184
I1
tp2292
sS'ismail'
p2293
(I136108
I2
tp2294
sS'holiday'
p2295
(I123156
I1
tp2296
sVconced
p2297
(I66517
I5
tp2298
sVsensibl
p2299
(I216454
I3
tp2300
sS'tour'
p2301
(I248610
I1
tp2302
sS'burn'
p2303
(I53046
I2
tp2304
sVconfer
p2305
(I67706
I5
tp2306
sVdiscount
p2307
(I86209
I1
tp2308
sS'binder'
p2309
(I49888
I1
tp2310
sVprotagonist
p2311
(I194206
I1
tp2312
sS'yoke'
p2313
(I271059
I1
tp2314
sVunreason
p2315
(I254504
I2
tp2316
sVwari
p2317
(I260559
I1
tp2318
sVadmittedli
p2319
(I26889
I1
tp2320
sS'post'
p2321
(I187577
I6
tp2322
sVdescrib
p2323
(I82877
I8
tp2324
sVunsaf
p2325
(I254669
I1
tp2326
sVwiltshir
p2327
(I266732
I1
tp2328
sS'choukhani'
p2329
(I60358
I1
tp2330
sS'escher'
p2331
(I96972
I1
tp2332
sS'dashboard'
p2333
(I77889
I1
tp2334
sVchronolog
p2335
(I60428
I2
tp2336
sVabdomin
p2337
(I21757
I1
tp2338
sS'coram'
p2339
(I72467
I25
tp2340
sVcurri
p2341
(I77202
I1
tp2342
sVliteratur
p2343
(I149254
I1
tp2344
sS'o'
p2345
(I169325
I7
tp2346
sVunfortun
p2347
(I253582
I5
tp2348
sVopin
p2349
(I174313
I1
tp2350
sVjunctur
p2351
(I139624
I1
tp2352
sS'dinner'
p2353
(I85257
I3
tp2354
sS'afternoon'
p2355
(I28255
I5
tp2356
sS'commit'
p2357
(I64899
I17
tp2358
sS'reward'
p2359
(I209191
I1
tp2360
sS'1972'
p2361
(I6752
I1
tp2362
sS'touch'
p2363
(I248502
I8
tp2364
sVproduc
p2365
(I192312
I10
tp2366
sVunequivoc
p2367
(I253415
I1
tp2368
sVmatch
p2369
(I154979
I1
tp2370
sVbath
p2371
(I45697
I1
tp2372
sVunderli
p2373
(I252878
I1
tp2374
sVabet
p2375
(I21869
I3
tp2376
sVtelephon
p2377
(I238285
I6
tp2378
sS'madhavan'
p2379
(I152309
I1
tp2380
sS'undergo'
p2381
(I252864
I1
tp2382
sS'civil'
p2383
(I61210
I6
tp2384
sS'prakash'
p2385
(I188332
I1
tp2386
sS'connor'
p2387
(I68328
I1
tp2388
sS'lien'
p2389
(I148017
I2
tp2390
sS'bound'
p2391
(I51292
I1
tp2392
sS'soo'
p2393
(I226711
I3
tp2394
sS'son'
p2395
(I226642
I5
tp2396
sS'down'
p2397
(I89646
I14
tp2398
sVlewi
p2399
(I147346
I3
tp2400
sVbizarr
p2401
(I49945
I1
tp2402
sVformerli
p2403
(I109001
I1
tp2404
sS'postbox'
p2405
(I187659
I1
tp2406
sVwrap
p2407
(I269683
I3
tp2408
sVopportun
p2409
(I174531
I9
tp2410
sS'stall'
p2411
(I228768
I2
tp2412
sS'wan'
p2413
(I260353
I2
tp2414
sVaccordingli
p2415
(I23786
I24
tp2416
sS'america'
p2417
(I33023
I1
tp2418
sVfabric
p2419
(I102172
I3
tp2420
sVsuffici
p2421
(I234072
I13
tp2422
sS'wah'
p2423
(I260078
I2
tp2424
sVdewi
p2425
(I84140
I1
tp2426
sVsupport
p2427
(I235171
I18
tp2428
sS'wwr'
p2429
(I270233
I1
tp2430
sVclass
p2431
(I61996
I6
tp2432
sVavail
p2433
(I43344
I7
tp2434
sVimit
p2435
(I126931
I1
tp2436
sVreli
p2437
(I204487
I14
tp2438
sS'way'
p2439
(I260945
I17
tp2440
sS'embroil'
p2441
(I93907
I1
tp2442
sVmusic
p2443
(I162462
I1
tp2444
sS'gim'
p2445
(I112986
I1
tp2446
sVretali
p2447
(I208403
I1
tp2448
sVanalysi
p2449
(I33823
I3
tp2450
sS'head'
p2451
(I118692
I7
tp2452
sS'therefrom'
p2453
(I242802
I2
tp2454
sS'slip'
p2455
(I224566
I1
tp2456
sS'form'
p2457
(I108781
I7
tp2458
sVoffer
p2459
(I171742
I7
tp2460
sVforc
p2461
(I108422
I12
tp2462
sS'crown'
p2463
(I76734
I2
tp2464
sS'libel'
p2465
(I147740
I2
tp2466
sVforg
p2467
(I108752
I1
tp2468
sVsurveil
p2469
(I235932
I2
tp2470
sS'drummond'
p2471
(I90908
I1
tp2472
sVundress
p2473
(I253360
I1
tp2474
sS'floorboard'
p2475
(I107416
I1
tp2476
sVheat
p2477
(I119379
I1
tp2478
sVurg
p2479
(I255855
I1
tp2480
sVhear
p2481
(I118898
I18
tp2482
sVrefriger
p2483
(I202588
I1
tp2484
sS'boon'
p2485
(I50674
I2
tp2486
sS'226'
p2487
(I9921
I1
tp2488
sS'224'
p2489
(I9826
I7
tp2490
sS'true'
p2491
(I250712
I11
tp2492
sS'222'
p2493
(I9798
I1
tp2494
sS'221'
p2495
(I9784
I1
tp2496
sVintellectu
p2497
(I133258
I1
tp2498
sS'powder'
p2499
(I187823
I1
tp2500
sS'fenlon'
p2501
(I105062
I1
tp2502
sS'counsel'
p2503
(I74094
I25
tp2504
sVgarnish
p2505
(I112075
I1
tp2506
sS'friday'
p2507
(I110244
I1
tp2508
sS'malaysia'
p2509
(I153253
I5
tp2510
sS'utmost'
p2511
(I256433
I1
tp2512
sVutensil
p2513
(I256405
I1
tp2514
sS'bargain'
p2515
(I45244
I1
tp2516
sVreiter
p2517
(I203591
I2
tp2518
sS'446'
p2519
(I15391
I1
tp2520
sVinaccur
p2521
(I128826
I2
tp2522
sS'303'
p2523
(I12797
I1
tp2524
sVpearc
p2525
(I182099
I1
tp2526
sVabsenc
p2527
(I22679
I9
tp2528
sVfundament
p2529
(I111195
I1
tp2530
sVauthent
p2531
(I43026
I1
tp2532
sVunrel
p2533
(I254572
I1
tp2534
sVrewir
p2535
(I209205
I1
tp2536
sVretir
p2537
(I208458
I1
tp2538
sS'penal'
p2539
(I182264
I7
tp2540
sS'151'
p2541
(I4473
I1
tp2542
sS'150'
p2543
(I4432
I2
tp2544
sVfeatur
p2545
(I104456
I2
tp2546
sValongsid
p2547
(I31636
I3
tp2548
sVpetit
p2549
(I183922
I6
tp2550
sS'abstract'
p2551
(I22900
I1
tp2552
sVmortgagor
p2553
(I161421
I1
tp2554
sS'246436'
p2555
(I10651
I1
tp2556
sS'proven'
p2557
(I194628
I2
tp2558
sVrosalin
p2559
(I210547
I1
tp2560
sVbrightli
p2561
(I51870
I1
tp2562
sS'thiam'
p2563
(I244091
I2
tp2564
sS'ana'
p2565
(I33755
I1
tp2566
sVexist
p2567
(I100341
I10
tp2568
sVglanc
p2569
(I113646
I2
tp2570
sVdesir
p2571
(I83124
I4
tp2572
sVship
p2573
(I220116
I2
tp2574
sVquantiti
p2575
(I197488
I3
tp2576
sS'acacia'
p2577
(I23068
I1
tp2578
sS'check'
p2579
(I59205
I6
tp2580
sS'mciver'
p2581
(I156172
I1
tp2582
sVspend
p2583
(I227902
I2
tp2584
sS'nk'
p2585
(I166346
I2
tp2586
sS'no'
p2587
(I166373
I25
tp2588
sS'na'
p2589
(I163196
I2
tp2590
sS'nb'
p2591
(I164199
I1
tp2592
sVintang
p2593
(I133230
I1
tp2594
sS'when'
p2595
(I263123
I23
tp2596
sS'ng'
p2597
(I165956
I8
tp2598
sVwillingli
p2599
(I266677
I1
tp2600
sVtin
p2601
(I246790
I1
tp2602
sS'role'
p2603
(I210231
I10
tp2604
sVjone
p2605
(I138435
I3
tp2606
sVcoleridg
p2607
(I63774
I1
tp2608
sS'test'
p2609
(I239306
I10
tp2610
sVtie
p2611
(I246346
I2
tp2612
sVpresum
p2613
(I189771
I9
tp2614
sS'ns'
p2615
(I168775
I1
tp2616
sS'nt'
p2617
(I168816
I1
tp2618
sVroll
p2619
(I210368
I2
tp2620
sVrealiti
p2621
(I200321
I1
tp2622
sVlegitim
p2623
(I146383
I4
tp2624
sVintend
p2625
(I133286
I12
tp2626
sVbenefici
p2627
(I48673
I2
tp2628
sVhandicap
p2629
(I117431
I1
tp2630
sVpreciou
p2631
(I188564
I1
tp2632
sValimahom
p2633
(I30329
I1
tp2634
sS'felt'
p2635
(I104939
I5
tp2636
sVnotwithstand
p2637
(I168284
I9
tp2638
sVhereinaft
p2639
(I120537
I1
tp2640
sVintens
p2641
(I133449
I3
tp2642
sVintent
p2643
(I133489
I10
tp2644
sVaward
p2645
(I43827
I3
tp2646
sVconsid
p2647
(I68671
I19
tp2648
sS'gest'
p2649
(I112681
I1
tp2650
sVstoke
p2651
(I230616
I1
tp2652
sVentrust
p2653
(I96189
I1
tp2654
sS'hurt'
p2655
(I124873
I4
tp2656
sS'weekend'
p2657
(I261758
I1
tp2658
sS'377'
p2659
(I14022
I1
tp2660
sS'billion'
p2661
(I49697
I1
tp2662
sS'99'
p2663
(I20967
I1
tp2664
sVfemal
p2665
(I105008
I2
tp2666
sVincontrovert
p2667
(I129720
I1
tp2668
sS'longer'
p2669
(I150193
I7
tp2670
sVfurthermor
p2671
(I111582
I6
tp2672
sVsock
p2673
(I225520
I1
tp2674
sS'salt'
p2675
(I212158
I1
tp2676
sVintimaci
p2677
(I134496
I1
tp2678
sVshortfal
p2679
(I220504
I1
tp2680
sS'affidavit'
p2681
(I27715
I5
tp2682
sVwithhold
p2683
(I267726
I2
tp2684
sS'fsr'
p2685
(I110822
I1
tp2686
sVcontributorili
p2687
(I71520
I1
tp2688
sS'lingam'
p2689
(I149007
I1
tp2690
sS'fact'
p2691
(I102430
I23
tp2692
sS'time'
p2693
(I246471
I23
tp2694
sVpush
p2695
(I196746
I2
tp2696
sVserious
p2697
(I217481
I5
tp2698
sS'376'
p2699
(I14008
I1
tp2700
sS'126'
p2701
(I3292
I1
tp2702
sVdaili
p2703
(I77656
I2
tp2704
sS'multi'
p2705
(I162321
I1
tp2706
sVcorpu
p2707
(I73015
I1
tp2708
sVshop
p2709
(I220254
I4
tp2710
sVconcept
p2711
(I66653
I1
tp2712
sS'doctor'
p2713
(I88638
I1
tp2714
sS'4741'
p2715
(I15931
I1
tp2716
sS'whoever'
p2717
(I265508
I5
tp2718
sVrob
p2719
(I210092
I1
tp2720
sVparticular
p2721
(I180651
I14
tp2722
sS'rod'
p2723
(I210203
I1
tp2724
sVfocus
p2725
(I107515
I1
tp2726
sS'livelihood'
p2727
(I149488
I1
tp2728
sS'91'
p2729
(I20583
I3
tp2730
sVsignific
p2731
(I221954
I9
tp2732
sVniec
p2733
(I166108
I1
tp2734
sVfourthli
p2735
(I109900
I1
tp2736
sS'ramphal'
p2737
(I198984
I1
tp2738
sVmatur
p2739
(I155600
I1
tp2740
sS'mill'
p2741
(I158573
I1
tp2742
sS'hinton'
p2743
(I122495
I1
tp2744
sS'skid'
p2745
(I224401
I1
tp2746
sS'ab111'
p2747
(I21505
I1
tp2748
sS'row'
p2749
(I210631
I1
tp2750
sVdecid
p2751
(I79494
I11
tp2752
sS'1949'
p2753
(I6175
I4
tp2754
sVdepend
p2755
(I82256
I8
tp2756
sS'jurong'
p2757
(I139957
I2
tp2758
sVflash
p2759
(I107154
I2
tp2760
sS'father'
p2761
(I104143
I3
tp2762
sS'pen'
p2763
(I182250
I1
tp2764
sVaggriev
p2765
(I29152
I1
tp2766
sS'818'
p2767
(I20007
I1
tp2768
sS'kwok'
p2769
(I142853
I1
tp2770
sVcertainli
p2771
(I57970
I2
tp2772
sVquash
p2773
(I197623
I3
tp2774
sVdecis
p2775
(I79648
I25
tp2776
sS'246460'
p2777
(I10707
I1
tp2778
sVchequ
p2779
(I59494
I2
tp2780
sVpersecut
p2781
(I183243
I1
tp2782
sVretreat
p2783
(I208499
I1
tp2784
sS'1991'
p2785
(I7491
I10
tp2786
sVsourc
p2787
(I227207
I3
tp2788
sS'telegraph'
p2789
(I238271
I1
tp2790
sVminist
p2791
(I158939
I3
tp2792
sVaccid
p2793
(I23358
I5
tp2794
sS'ibrahim'
p2795
(I125462
I2
tp2796
sVintrins
p2797
(I134885
I2
tp2798
sS'unfamiliar'
p2799
(I253541
I1
tp2800
sVembark
p2801
(I93879
I1
tp2802
sVbroadli
p2803
(I52077
I3
tp2804
sVcondit
p2805
(I67350
I9
tp2806
sVoctob
p2807
(I170625
I11
tp2808
sS'1995'
p2809
(I7972
I9
tp2810
sVsu
p2811
(I231936
I1
tp2812
sS'exact'
p2813
(I98905
I3
tp2814
sS'room'
p2815
(I210450
I7
tp2816
sS'422'
p2817
(I15156
I1
tp2818
sS'breadth'
p2819
(I51623
I1
tp2820
sS'1997'
p2821
(I8274
I13
tp2822
sVadministr
p2823
(I26597
I2
tp2824
sVlevel
p2825
(I147262
I4
tp2826
sS'did'
p2827
(I84374
I21
tp2828
sVdie
p2829
(I84711
I2
tp2830
sVdisqualifi
p2831
(I87470
I2
tp2832
sS'bukit'
p2833
(I52782
I1
tp2834
sS'brother'
p2835
(I52228
I4
tp2836
sS'micro'
p2837
(I158286
I1
tp2838
sS'mathew'
p2839
(I155320
I1
tp2840
sVitem
p2841
(I136878
I7
tp2842
sS'ab293'
p2843
(I21561
I1
tp2844
sS'team'
p2845
(I238093
I1
tp2846
sS'lever'
p2847
(I147318
I1
tp2848
sS'dip'
p2849
(I85297
I1
tp2850
sVround
p2851
(I210603
I1
tp2852
sS'lloyd'
p2853
(I149638
I1
tp2854
sVempow
p2855
(I94386
I2
tp2856
sVprevent
p2857
(I190115
I10
tp2858
sS'pork'
p2859
(I186846
I1
tp2860
sS'blade'
p2861
(I49999
I1
tp2862
sVpermiss
p2863
(I183120
I2
tp2864
sVconstru
p2865
(I69567
I6
tp2866
sS'trend'
p2867
(I249705
I1
tp2868
sVhousebreak
p2869
(I123958
I1
tp2870
sVcompens
p2871
(I65608
I2
tp2872
sVplu
p2873
(I185964
I2
tp2874
sVsign
p2875
(I221747
I10
tp2876
sS'inland'
p2877
(I131924
I1
tp2878
sVconceal
p2879
(I66477
I3
tp2880
sS'keem'
p2881
(I140738
I1
tp2882
sVcost
p2883
(I73535
I9
tp2884
sS'184'
p2885
(I5487
I1
tp2886
sS'ramlah'
p2887
(I198970
I1
tp2888
sS'chettiar'
p2889
(I59603
I1
tp2890
sVhelpless
p2891
(I119922
I2
tp2892
sS'port'
p2893
(I186860
I3
tp2894
sVinconclus
p2895
(I129556
I1
tp2896
sVnonsuit
p2897
(I166992
I1
tp2898
sVappear
p2899
(I36461
I19
tp2900
sVcurrenc
p2901
(I77174
I1
tp2902
sVrepli
p2903
(I205872
I13
tp2904
sVdishonestli
p2905
(I86726
I2
tp2906
sS'favour'
p2907
(I104306
I8
tp2908
sVuniform
p2909
(I253693
I3
tp2910
sS'current'
p2911
(I77188
I1
tp2912
sS'526'
p2913
(I16976
I2
tp2914
sS'527'
p2915
(I17003
I1
tp2916
sVsuspect
p2917
(I236029
I4
tp2918
sVvindic
p2919
(I258905
I1
tp2920
sS'523'
p2921
(I16949
I2
tp2922
sS'eaten'
p2923
(I92600
I1
tp2924
sS'appeal'
p2925
(I36131
I24
tp2926
sS'528'
p2927
(I17017
I1
tp2928
sS'529'
p2929
(I17031
I3
tp2930
sVderis
p2931
(I82764
I1
tp2932
sS'q1'
p2933
(I197155
I1
tp2934
sVdavind
p2935
(I78342
I1
tp2936
sVpose
p2937
(I187037
I2
tp2938
sVderiv
p2939
(I82778
I4
tp2940
sS'honour'
p2941
(I123462
I1
tp2942
sS'clerk'
p2943
(I62665
I5
tp2944
sVlearn
p2945
(I145117
I11
tp2946
sS'panoo'
p2947
(I179288
I1
tp2948
sS'305'
p2949
(I12811
I2
tp2950
sVsatisfi
p2951
(I212752
I11
tp2952
sS'changi'
p2953
(I58539
I4
tp2954
sVentertain
p2955
(I95832
I1
tp2956
sS'246427'
p2957
(I10623
I1
tp2958
sVaddress
p2959
(I26159
I8
tp2960
sVdeceit
p2961
(I79292
I2
tp2962
sVlocat
p2963
(I149804
I5
tp2964
sS'along'
p2965
(I31498
I10
tp2966
sVviabl
p2967
(I258231
I1
tp2968
sVtechnolog
p2969
(I238190
I1
tp2970
sVwait
p2971
(I260133
I5
tp2972
sS'box'
p2973
(I51320
I5
tp2974
sS'boy'
p2975
(I51390
I1
tp2976
sS'male'
p2977
(I153406
I5
tp2978
sS'china'
p2979
(I59905
I2
tp2980
sS'6000'
p2981
(I18117
I1
tp2982
sVinvit
p2983
(I135226
I1
tp2984
sS'precursor'
p2985
(I188686
I2
tp2986
sVshift
p2987
(I220102
I1
tp2988
sS'q6'
p2989
(I197225
I1
tp2990
sS'rajoo'
p2991
(I198859
I1
tp2992
sVpirat
p2993
(I184683
I1
tp2994
sS'lr'
p2995
(I151324
I2
tp2996
sVresumpt
p2997
(I208347
I1
tp2998
sS'trial'
p2999
(I249952
I17
tp3000
sS'bok'
p3001
(I50523
I1
tp3002
sVbehav
p3003
(I47906
I1
tp3004
sVexpressli
p3005
(I101522
I5
tp3006
sVextrem
p3007
(I101936
I5
tp3008
sS'shook'
p3009
(I220240
I1
tp3010
sVguilti
p3011
(I115877
I16
tp3012
sS'samsuri'
p3013
(I212463
I1
tp3014
sS'montreal'
p3015
(I160763
I1
tp3016
sVpromot
p3017
(I192876
I2
tp3018
sS'347'
p3019
(I13610
I1
tp3020
sVregardless
p3021
(I203096
I2
tp3022
sVactiv
p3023
(I25477
I7
tp3024
sVprefer
p3025
(I188727
I8
tp3026
sS'paragon'
p3027
(I179525
I1
tp3028
sVswerv
p3029
(I236335
I1
tp3030
sVforev
p3031
(I108682
I1
tp3032
sS'999'
p3033
(I21009
I1
tp3034
sS'334'
p3035
(I13378
I1
tp3036
sS'fake'
p3037
(I103434
I1
tp3038
sVinstal
p3039
(I132485
I2
tp3040
sS'mckenna'
p3041
(I156186
I1
tp3042
sVhyster
p3043
(I125067
I1
tp3044
sS'epha'
p3045
(I96338
I1
tp3046
sVmarket
p3047
(I154759
I2
tp3048
sVwholesal
p3049
(I265740
I1
tp3050
sS'prem'
p3051
(I188915
I1
tp3052
sVmanufactur
p3053
(I154398
I3
tp3054
sVnewslett
p3055
(I165709
I1
tp3056
sS'wealth'
p3057
(I261470
I1
tp3058
sS'prove'
p3059
(I194395
I17
tp3060
sS'subvert'
p3061
(I233393
I1
tp3062
sS'185'
p3063
(I5515
I4
tp3064
sVunivers
p3065
(I253925
I1
tp3066
sS'swee'
p3067
(I236280
I2
tp3068
sS'by'
p3069
(I53691
I25
tp3070
sVlive
p3071
(I149406
I6
tp3072
sS'upheld'
p3073
(I255496
I4
tp3074
sVremind
p3075
(I205225
I4
tp3076
sS'ahhh'
p3077
(I29715
I1
tp3078
sVsuppos
p3079
(I235420
I6
tp3080
sVangri
p3081
(I34416
I2
tp3082
sS'herniman'
p3083
(I120593
I1
tp3084
sVmisconceiv
p3085
(I159171
I2
tp3086
sS'prosecutor'
p3087
(I193885
I18
tp3088
sS'40pm'
p3089
(I14976
I1
tp3090
sS'menstrual'
p3091
(I157362
I1
tp3092
sVdismay
p3093
(I86753
I1
tp3094
sVcapit
p3095
(I55695
I1
tp3096
sS'dimpex'
p3097
(I85243
I1
tp3098
sVpress
p3099
(I189646
I9
tp3100
sVrealti
p3101
(I200460
I1
tp3102
sVafford
p3103
(I27881
I3
tp3104
sVpeopl
p3105
(I182552
I5
tp3106
sVclaus
p3107
(I62118
I2
tp3108
sS'ooi'
p3109
(I173912
I2
tp3110
sVmalay
p3111
(I153185
I2
tp3112
sS'refrain'
p3113
(I202547
I2
tp3114
sS'048943'
p3115
(I1014
I1
tp3116
sS'fuel'
p3117
(I110850
I2
tp3118
sS'visual'
p3119
(I259166
I1
tp3120
sVappel
p3121
(I36724
I20
tp3122
sS'rigid'
p3123
(I209658
I1
tp3124
sS'553'
p3125
(I17333
I1
tp3126
sVexamin
p3127
(I99028
I20
tp3128
sVfirmli
p3129
(I106443
I1
tp3130
sVeffort
p3131
(I93125
I4
tp3132
sS'behalf'
p3133
(I47753
I11
tp3134
sS'nirmala'
p3135
(I166317
I1
tp3136
sS'naragatha'
p3137
(I163747
I1
tp3138
sVibi
p3139
(I125434
I1
tp3140
sS'4177'
p3141
(I15072
I1
tp3142
sVvalli
p3143
(I256948
I1
tp3144
sS'car'
p3145
(I55750
I9
tp3146
sVprepar
p3147
(I189052
I7
tp3148
sS'cap'
p3149
(I55282
I22
tp3150
sVjudg
p3151
(I138670
I21
tp3152
sVuniqu
p3153
(I253789
I2
tp3154
sVimper
p3155
(I127315
I4
tp3156
sVmacfarlan
p3157
(I151914
I1
tp3158
sS'innuendo'
p3159
(I132047
I2
tp3160
sVinadvis
p3161
(I128978
I2
tp3162
sS'can'
p3163
(I54865
I18
tp3164
sVinadequ
p3165
(I128880
I4
tp3166
sS'cal'
p3167
(I54275
I2
tp3168
sVimped
p3169
(I127301
I1
tp3170
sVpurpos
p3171
(I196363
I16
tp3172
sVprivi
p3173
(I191321
I5
tp3174
sVunreli
p3175
(I254586
I1
tp3176
sVclaim
p3177
(I61637
I19
tp3178
sS'stream'
p3179
(I231372
I1
tp3180
sVmayb
p3181
(I156074
I2
tp3182
sVexplos
p3183
(I101291
I1
tp3184
sS'gangatharan'
p3185
(I111992
I1
tp3186
sS'agent'
p3187
(I29012
I6
tp3188
sS'chiu'
p3189
(I60029
I2
tp3190
sS'heard'
p3191
(I119147
I15
tp3192
sVstroke
p3193
(I231646
I4
tp3194
sVabort
p3195
(I22130
I3
tp3196
sS'chin'
p3197
(I59865
I3
tp3198
sVrecollect
p3199
(I201566
I1
tp3200
sS'council'
p3201
(I74038
I4
tp3202
sS'sharp'
p3203
(I219682
I2
tp3204
sVagenc
p3205
(I28998
I1
tp3206
sS'chia'
p3207
(I59631
I1
tp3208
sS'stole'
p3209
(I230630
I1
tp3210
sS'storehand'
p3211
(I231003
I1
tp3212
sS'232'
p3213
(I10180
I2
tp3214
sVacced
p3215
(I23082
I1
tp3216
sS'pink'
p3217
(I184655
I1
tp3218
sS'ramesh'
p3219
(I198956
I1
tp3220
sVmoham
p3221
(I160077
I1
tp3222
sVmultipl
p3223
(I162335
I1
tp3224
sS'bankrupt'
p3225
(I45093
I2
tp3226
sVfestiv
p3227
(I105117
I1
tp3228
sS'proviso'
p3229
(I195001
I2
tp3230
sS'sinnathambi'
p3231
(I223684
I1
tp3232
sS'brand'
p3233
(I51499
I1
tp3234
sS'1'
p3235
(I1371
I22
tp3236
sValway
p3237
(I32584
I6
tp3238
sS'sunday'
p3239
(I234923
I1
tp3240
sS'vital'
p3241
(I259180
I1
tp3242
sVanyon
p3243
(I35532
I6
tp3244
sVpure
p3245
(I196267
I5
tp3246
sS'swore'
p3247
(I236349
I1
tp3248
sS'marshal'
p3249
(I154842
I1
tp3250
sS'sworn'
p3251
(I236363
I3
tp3252
sS'banker'
p3253
(I45079
I1
tp3254
sS'146'
p3255
(I4143
I1
tp3256
sS'147'
p3257
(I4171
I1
tp3258
sVproduct
p3259
(I192450
I5
tp3260
sS'142'
p3261
(I4074
I2
tp3262
sS'143'
p3263
(I4101
I1
tp3264
sVintrud
p3265
(I134966
I1
tp3266
sS'141'
p3267
(I4060
I1
tp3268
sS'may'
p3269
(I155792
I20
tp3270
sS'sno'
p3271
(I225102
I1
tp3272
sVcbn
p3273
(I57539
I1
tp3274
sVspot
p3275
(I228217
I3
tp3276
sS'148'
p3277
(I4185
I1
tp3278
sS'998'
p3279
(I20995
I1
tp3280
sS'membership'
p3281
(I157195
I1
tp3282
sS'4th'
p3283
(I16193
I1
tp3284
sVlaundri
p3285
(I144435
I1
tp3286
sVpasseng
p3287
(I181369
I3
tp3288
sS'tramway'
p3289
(I249108
I1
tp3290
sS'date'
p3291
(I77917
I25
tp3292
sS'such'
p3293
(I233559
I25
tp3294
sS'suck'
p3295
(I233907
I1
tp3296
sVloophol
p3297
(I150512
I1
tp3298
sVgrow
p3299
(I115533
I1
tp3300
sS'man'
p3301
(I153531
I8
tp3302
sVregularli
p3303
(I203440
I1
tp3304
sVstress
p3305
(I231454
I2
tp3306
sVpractic
p3307
(I188208
I5
tp3308
sVwoodroff
p3309
(I268714
I1
tp3310
sS'joint'
p3311
(I138353
I3
tp3312
sS'ss'
p3313
(I228395
I10
tp3314
sS'sr'
p3315
(I228367
I1
tp3316
sS'sq'
p3317
(I228313
I2
tp3318
sVdivid
p3319
(I88185
I5
tp3320
sS'ab54'
p3321
(I21617
I1
tp3322
sS'lankatharan'
p3323
(I143604
I1
tp3324
sVoffens
p3325
(I171728
I1
tp3326
sS'fluent'
p3327
(I107472
I1
tp3328
sVinform
p3329
(I131181
I16
tp3330
sS'gap'
p3331
(I112006
I2
tp3332
sVpreced
p3333
(I188482
I6
tp3334
sS'so'
p3335
(I225117
I22
tp3336
sS'deposit'
p3337
(I82378
I3
tp3338
sVspray
p3339
(I228271
I1
tp3340
sS'sc'
p3341
(I213473
I2
tp3342
sS'region'
p3343
(I203123
I1
tp3344
sS'sg'
p3345
(I218571
I25
tp3346
sVordinari
p3347
(I175606
I6
tp3348
sVtalk
p3349
(I237324
I5
tp3350
sVoffenc
p3351
(I171351
I19
tp3352
sVrefund
p3353
(I202602
I1
tp3354
sS'remand'
p3355
(I205020
I3
tp3356
sVbush
p3357
(I53102
I1
tp3358
sS'shield'
p3359
(I220088
I1
tp3360
sS'40am'
p3361
(I14948
I1
tp3362
sS'east'
p3363
(I92519
I3
tp3364
sS'090'
p3365
(I1357
I1
tp3366
sVforfeit
p3367
(I108696
I2
tp3368
sS'beaumont'
p3369
(I46283
I2
tp3370
sVapprov
p3371
(I37960
I6
tp3372
sS'kong'
p3373
(I142606
I2
tp3374
sS'buyer'
p3375
(I53676
I1
tp3376
sVsob
p3377
(I225423
I1
tp3378
sVclassifi
p3379
(I62078
I3
tp3380
sS'246592'
p3381
(I10749
I1
tp3382
sVnoteworthi
p3383
(I167901
I1
tp3384
sS'9am'
p3385
(I21023
I1
tp3386
sVemphasi
p3387
(I94030
I8
tp3388
sVentitl
p3389
(I95984
I10
tp3390
sS'still'
p3391
(I230343
I17
tp3392
sVmainli
p3393
(I152626
I3
tp3394
sVequit
p3395
(I96532
I1
tp3396
sS'jock'
p3397
(I138119
I1
tp3398
sVethic
p3399
(I97548
I1
tp3400
sVnarrowli
p3401
(I163872
I1
tp3402
sVreinforc
p3403
(I203537
I3
tp3404
sVinterspers
p3405
(I134357
I1
tp3406
sS'group'
p3407
(I115477
I4
tp3408
sVthank
p3409
(I240037
I1
tp3410
sVpolici
p3411
(I186693
I5
tp3412
sVpassag
p3413
(I181273
I7
tp3414
sVgirdl
p3415
(I113014
I1
tp3416
sS'1839'
p3417
(I5473
I1
tp3418
sVprecondit
p3419
(I188659
I2
tp3420
sS'gan'
p3421
(I111910
I2
tp3422
sS'thana'
p3423
(I240023
I1
tp3424
sS'tort'
p3425
(I248228
I5
tp3426
sS'window'
p3427
(I266774
I3
tp3428
sVbeelin
p3429
(I46967
I1
tp3430
sS'suspicion'
p3431
(I236142
I3
tp3432
sVgem
p3433
(I112389
I1
tp3434
sVfoundat
p3435
(I109596
I1
tp3436
sS'mail'
p3437
(I152488
I1
tp3438
sVarguabl
p3439
(I38805
I2
tp3440
sS'main'
p3441
(I152502
I9
tp3442
sVascrib
p3443
(I40446
I1
tp3444
sVpetition
p3445
(I184004
I4
tp3446
sVrecoveri
p3447
(I201897
I2
tp3448
sVculpabl
p3449
(I76940
I3
tp3450
sS'non'
p3451
(I166758
I5
tp3452
sVdispens
p3453
(I87071
I1
tp3454
sVrecal
p3455
(I200961
I3
tp3456
sS'3'
p3457
(I12282
I19
tp3458
sVnod
p3459
(I166730
I1
tp3460
sVfinanci
p3461
(I105836
I5
tp3462
sViniti
p3463
(I131595
I10
tp3464
sS'kalamohan'
p3465
(I140462
I1
tp3466
sS'underneath'
p3467
(I252946
I1
tp3468
sS'interview'
p3469
(I134399
I4
tp3470
sVexpediti
p3471
(I100672
I2
tp3472
sS'1956'
p3473
(I6370
I1
tp3474
sS'1951'
p3475
(I6259
I2
tp3476
sS'mbb'
p3477
(I156115
I1
tp3478
sVtherebi
p3479
(I242376
I12
tp3480
sS'1952'
p3481
(I6286
I4
tp3482
sS'not'
p3483
(I167334
I25
tp3484
sS'now'
p3485
(I168503
I17
tp3486
sS'kumar'
p3487
(I142758
I3
tp3488
sVdiscuss
p3489
(I86548
I8
tp3490
sS'nor'
p3491
(I167033
I12
tp3492
sVpossess
p3493
(I187258
I14
tp3494
sS'logic'
p3495
(I149985
I1
tp3496
sVterm
p3497
(I238989
I17
tp3498
sVanteced
p3499
(I35394
I5
tp3500
sVcenturi
p3501
(I57803
I1
tp3502
sS'name'
p3503
(I163335
I25
tp3504
sS'servant'
p3505
(I217646
I3
tp3506
sVclutch
p3507
(I63150
I1
tp3508
sS'frank'
p3509
(I110011
I2
tp3510
sVrevers
p3511
(I208926
I4
tp3512
sS'revert'
p3513
(I208982
I6
tp3514
sVsepar
p3515
(I216917
I5
tp3516
sS'wong'
p3517
(I268563
I10
tp3518
sS'breach'
p3519
(I51527
I7
tp3520
sS'rock'
p3521
(I210189
I1
tp3522
sVadjud
p3523
(I26529
I3
tp3524
sVpenetr
p3525
(I182469
I1
tp3526
sVcollaps
p3527
(I63788
I1
tp3528
sS'238'
p3529
(I10207
I1
tp3530
sVcourag
p3531
(I74618
I1
tp3532
sS'liew'
p3533
(I148058
I1
tp3534
sVeveryth
p3535
(I98425
I1
tp3536
sS'complexion'
p3537
(I66185
I1
tp3538
sS'319'
p3539
(I13140
I1
tp3540
sS'chander'
p3541
(I58429
I1
tp3542
sS'zurich'
p3543
(I271889
I1
tp3544
sS'ed'
p3545
(I92628
I12
tp3546
sVindividu
p3547
(I130668
I4
tp3548
sVreceipt
p3549
(I201030
I7
tp3550
sVculmin
p3551
(I76926
I1
tp3552
sVcontinu
p3553
(I70782
I10
tp3554
sVdramat
p3555
(I89989
I1
tp3556
sVcollus
p3557
(I64048
I1
tp3558
sS'1174'
p3559
(I2806
I1
tp3560
sVhaul
p3561
(I117889
I1
tp3562
sVsignificantli
p3563
(I222078
I4
tp3564
sS'begun'
p3565
(I47739
I1
tp3566
sVyear
p3567
(I270453
I20
tp3568
sS'eu'
p3569
(I97562
I1
tp3570
sVresourc
p3571
(I207054
I2
tp3572
sVhappen
p3573
(I117556
I11
tp3574
sS'sundara'
p3575
(I234895
I1
tp3576
sVdispos
p3577
(I87126
I7
tp3578
sVrescind
p3579
(I206808
I1
tp3580
sS'neighbourhood'
p3581
(I165106
I1
tp3582
sVer
p3583
(I96629
I10
tp3584
sS'canada'
p3585
(I55117
I1
tp3586
sS'shown'
p3587
(I221202
I11
tp3588
sS'793'
p3589
(I19593
I2
tp3590
sS'gurbani'
p3591
(I116111
I1
tp3592
sS'3rd'
p3593
(I14451
I2
tp3594
sS'space'
p3595
(I227275
I2
tp3596
sVprofit
p3597
(I192588
I3
tp3598
sS'351'
p3599
(I13678
I2
tp3600
sS'prowl'
p3601
(I195028
I1
tp3602
sVlahvind
p3603
(I143245
I1
tp3604
sVrational
p3605
(I199409
I3
tp3606
sS'612'
p3607
(I18145
I1
tp3608
sVunderwrit
p3609
(I253234
I1
tp3610
sS'blk'
p3611
(I50124
I7
tp3612
sVoverlook
p3613
(I177644
I1
tp3614
sS'300m'
p3615
(I12769
I1
tp3616
sVinadequaci
p3617
(I128936
I1
tp3618
sS'correct'
p3619
(I73029
I12
tp3620
sVintegr
p3621
(I133244
I1
tp3622
sS'after'
p3623
(I27976
I20
tp3624
sVcarlisl
p3625
(I56138
I1
tp3626
sVbumpi
p3627
(I52810
I1
tp3628
sVascertain
p3629
(I40338
I8
tp3630
sS'seventh'
p3631
(I218299
I2
tp3632
sVargu
p3633
(I38611
I14
tp3634
sS'abdomen'
p3635
(I21730
I2
tp3636
sVheadlin
p3637
(I118803
I1
tp3638
sVunremark
p3639
(I254600
I1
tp3640
sVdig
p3641
(I85173
I1
tp3642
sS'krishnan'
p3643
(I142675
I1
tp3644
sS'plea'
p3645
(I185689
I3
tp3646
sS'500m2'
p3647
(I16660
I1
tp3648
sVspan
p3649
(I227302
I1
tp3650
sS'keith'
p3651
(I140900
I1
tp3652
sS'card'
p3653
(I55902
I4
tp3654
sVcare
p3655
(I55959
I10
tp3656
sS'pung'
p3657
(I195702
I20
tp3658
sVsceptic
p3659
(I213765
I2
tp3660
sS'vult'
p3661
(I259606
I4
tp3662
sVdepartur
p3663
(I82228
I2
tp3664
sVentranc
p3665
(I96122
I2
tp3666
sS'waiter'
p3667
(I260202
I1
tp3668
sVrefut
p3669
(I202780
I1
tp3670
sVunreport
p3671
(I254614
I2
tp3672
sVaveri
p3673
(I43579
I1
tp3674
sVrefus
p3675
(I202616
I12
tp3676
sS'honest'
p3677
(I123339
I3
tp3678
sVrecov
p3679
(I201843
I3
tp3680
sS'turn'
p3681
(I251150
I13
tp3682
sS'yuk'
p3683
(I271749
I1
tp3684
sVplace
p3685
(I184712
I20
tp3686
sS'gordon'
p3687
(I114430
I1
tp3688
sVshelv
p3689
(I220019
I1
tp3690
sS'panorama'
p3691
(I179302
I1
tp3692
sS'511'
p3693
(I16814
I1
tp3694
sVprincipl
p3695
(I190777
I15
tp3696
sVthink
p3697
(I244312
I12
tp3698
sVfrequent
p3699
(I110203
I2
tp3700
sS'first'
p3701
(I106457
I23
tp3702
sVoper
p3703
(I174077
I16
tp3704
sS'crim'
p3705
(I76028
I2
tp3706
sS'ab242'
p3707
(I21547
I1
tp3708
sS'4740'
p3709
(I15917
I1
tp3710
sS'onn'
p3711
(I173706
I4
tp3712
sVbeauti
p3713
(I46310
I1
tp3714
sVdirectli
p3715
(I85594
I5
tp3716
sVcarri
p3717
(I56166
I15
tp3718
sVonc
p3719
(I172753
I14
tp3720
sS'xa'
p3721
(I270274
I1
tp3722
sS'ong'
p3723
(I173296
I6
tp3724
sS'one'
p3725
(I172946
I25
tp3726
sVpiraci
p3727
(I184669
I1
tp3728
sS'long'
p3729
(I149999
I14
tp3730
sVoppos
p3731
(I174655
I3
tp3732
sVring
p3733
(I209700
I3
tp3734
sS'drove'
p3735
(I90777
I4
tp3736
sS'open'
p3737
(I173939
I9
tp3738
sS'kuan'
p3739
(I142703
I2
tp3740
sVonu
p3741
(I173858
I2
tp3742
sVbrochur
p3743
(I52131
I2
tp3744
sS'given'
p3745
(I113331
I21
tp3746
sS'silent'
p3747
(I222148
I3
tp3748
sS'district'
p3749
(I87921
I14
tp3750
sS'stuck'
p3751
(I231880
I1
tp3752
sS'yim'
p3753
(I271002
I1
tp3754
sS'lanka'
p3755
(I143590
I1
tp3756
sS'caught'
p3757
(I57125
I4
tp3758
sVproposit
p3759
(I193525
I5
tp3760
sVupstair
p3761
(I255841
I1
tp3762
sS'plastic'
p3763
(I185371
I4
tp3764
sVciti
p3765
(I61169
I2
tp3766
sVsilenc
p3767
(I222134
I1
tp3768
sS'2'
p3769
(I8658
I21
tp3770
sVdraft
p3771
(I89922
I3
tp3772
sS'tell'
p3773
(I238407
I9
tp3774
sS'2867z'
p3775
(I12032
I1
tp3776
sS'white'
p3777
(I265063
I7
tp3778
sVconveni
p3779
(I71713
I2
tp3780
sS'1m'
p3781
(I8644
I1
tp3782
sVcite
p3783
(I61045
I9
tp3784
sS'friend'
p3785
(I110258
I7
tp3786
sVforthcom
p3787
(I109015
I1
tp3788
sVfuner
p3789
(I111209
I1
tp3790
sVmegarri
p3791
(I157069
I1
tp3792
sS'hua'
p3793
(I124640
I3
tp3794
sS'courier'
p3795
(I74632
I1
tp3796
sS'that'
p3797
(I240065
I25
tp3798
sS'season'
p3799
(I214288
I1
tp3800
sVcopi
p3801
(I72385
I6
tp3802
sVundoubtedli
p3803
(I253304
I4
tp3804
sS'hui'
p3805
(I124791
I1
tp3806
sVspecifi
p3807
(I227645
I8
tp3808
sVcheshir
p3809
(I59562
I1
tp3810
sS'broadcast'
p3811
(I52063
I1
tp3812
sVdisqualif
p3813
(I87430
I3
tp3814
sVcook
p3815
(I72316
I2
tp3816
sVenclos
p3817
(I94563
I3
tp3818
sS'nadirah'
p3819
(I163223
I1
tp3820
sVallegedli
p3821
(I30935
I6
tp3822
sS'3667'
p3823
(I13924
I1
tp3824
sS'thai'
p3825
(I239693
I1
tp3826
sS'peck'
p3827
(I182141
I2
tp3828
sS'holder'
p3829
(I123129
I2
tp3830
sS'than'
p3831
(I239736
I21
tp3832
sS'tham'
p3833
(I239707
I1
tp3834
sS'11'
p3835
(I2421
I18
tp3836
sS'10'
p3837
(I1680
I21
tp3838
sS'13'
p3839
(I3389
I16
tp3840
sS'12'
p3841
(I2862
I17
tp3842
sS'15'
p3843
(I4255
I13
tp3844
sS'14'
p3845
(I3870
I13
tp3846
sS'17'
p3847
(I4872
I13
tp3848
sS'16'
p3849
(I4543
I12
tp3850
sS'19'
p3851
(I5777
I12
tp3852
sS'18'
p3853
(I5240
I13
tp3854
sVdefam
p3855
(I80296
I2
tp3856
sVexpens
p3857
(I100713
I3
tp3858
sVrecruit
p3859
(I201924
I1
tp3860
sS'warner'
p3861
(I260695
I1
tp3862
sS'loquitur'
p3863
(I150554
I1
tp3864
sVpurport
p3865
(I196336
I2
tp3866
sS'r'
p3867
(I198308
I12
tp3868
sVremors
p3869
(I205295
I1
tp3870
sVbalanc
p3871
(I44833
I6
tp3872
sS'were'
p3873
(I262463
I24
tp3874
sVposit
p3875
(I187064
I14
tp3876
sVstub
p3877
(I231866
I1
tp3878
sS'oath'
p3879
(I169421
I2
tp3880
sVseri
p3881
(I217248
I6
tp3882
sS'pre'
p3883
(I188373
I3
tp3884
sS'sai'
p3885
(I211617
I1
tp3886
sS'ang'
p3887
(I34347
I5
tp3888
sS'san'
p3889
(I212491
I3
tp3890
sVultim
p3891
(I251923
I1
tp3892
sS'craig'
p3893
(I75656
I1
tp3894
sS'ann'
p3895
(I34807
I2
tp3896
sS'sk'
p3897
(I224359
I1
tp3898
sVargument
p3899
(I38832
I15
tp3900
sVdelin
p3901
(I81337
I1
tp3902
sValleg
p3903
(I30730
I15
tp3904
sS'say'
p3905
(I213211
I17
tp3906
sS'himself'
p3907
(I122137
I19
tp3908
sVrent
p3909
(I205569
I2
tp3910
sVdeliv
p3911
(I81351
I16
tp3912
sS'breakfast'
p3913
(I51677
I2
tp3914
sVrecover
p3915
(I201883
I1
tp3916
sS'saw'
p3917
(I213043
I11
tp3918
sS'birtley'
p3919
(I49916
I1
tp3920
sS'sat'
p3921
(I212614
I2
tp3922
sVpackag
p3923
(I178763
I2
tp3924
sVsport
p3925
(I228203
I1
tp3926
sVengin
p3927
(I95108
I3
tp3928
sVfacult
p3929
(I102894
I1
tp3930
sVadvic
p3931
(I27457
I3
tp3932
sVnarcot
p3933
(I163775
I4
tp3934
sS'dato'
p3935
(I78259
I1
tp3936
sVmoreov
p3937
(I161188
I5
tp3938
sS'15pm'
p3939
(I4529
I1
tp3940
sVnote
p3941
(I167696
I15
tp3942
sValtogeth
p3943
(I32530
I2
tp3944
sVemphasis
p3945
(I94138
I2
tp3946
sVtake
p3947
(I236762
I19
tp3948
sVadvis
p3949
(I27497
I2
tp3950
sS'grip'
p3951
(I115171
I1
tp3952
sS'destroy'
p3953
(I83372
I1
tp3954
sVnoth
p3955
(I167915
I15
tp3956
sS'channel'
p3957
(I58597
I1
tp3958
sVincoher
p3959
(I129445
I1
tp3960
sS'200'
p3961
(I9183
I3
tp3962
sVbegin
p3963
(I47683
I4
tp3964
sS'sure'
p3965
(I235642
I4
tp3966
sVpain
p3967
(I179081
I3
tp3968
sS'204'
p3969
(I9250
I1
tp3970
sVnormal
p3971
(I167224
I5
tp3972
sS'209'
p3973
(I9278
I1
tp3974
sVunconvinc
p3975
(I252473
I1
tp3976
sS'price'
p3977
(I190460
I4
tp3978
sS'knew'
p3979
(I141723
I12
tp3980
sS'clearer'
p3981
(I62403
I1
tp3982
sS'paid'
p3983
(I178928
I11
tp3984
sS'render'
p3985
(I205405
I9
tp3986
sVinkl
p3987
(I131910
I1
tp3988
sVabus
p3989
(I22956
I4
tp3990
sVsunglass
p3991
(I234937
I1
tp3992
sS'buboh'
p3993
(I52683
I1
tp3994
sS'knee'
p3995
(I141709
I1
tp3996
sS'foothold'
p3997
(I108029
I1
tp3998
sS'pager'
p3999
(I178888
I3
tp4000
sVpanti
p4001
(I179316
I1
tp4002
sVannul
p4003
(I34834
I1
tp4004
sVdevada
p4005
(I83974
I1
tp4006
sS'350'
p4007
(I13664
I1
tp4008
sS'bore'
p4009
(I50715
I3
tp4010
sS'later'
p4011
(I144012
I15
tp4012
sVdrive
p4013
(I90493
I8
tp4014
sS'wing'
p4015
(I266814
I3
tp4016
sVbadg
p4017
(I44610
I1
tp4018
sVmeanwhil
p4019
(I156781
I2
tp4020
sS'backdrop'
p4021
(I44447
I1
tp4022
sS'chiang'
p4023
(I59645
I1
tp4024
sS'1august'
p4025
(I8630
I1
tp4026
sS'senior'
p4027
(I216276
I3
tp4028
sVpreambl
p4029
(I188427
I1
tp4030
sVhungri
p4031
(I124859
I1
tp4032
sVrecipi
p4033
(I201373
I3
tp4034
sS'misconduct'
p4035
(I159198
I2
tp4036
sS'229'
p4037
(I9935
I1
tp4038
sVuncondit
p4039
(I252432
I2
tp4040
sS'show'
p4041
(I220903
I21
tp4042
sVcheat
p4043
(I59165
I3
tp4044
sVmisus
p4045
(I159485
I4
tp4046
sS'pursuant'
p4047
(I196651
I7
tp4048
sS'merit'
p4049
(I157804
I9
tp4050
sS'basic'
p4051
(I45641
I2
tp4052
sS'ling'
p4053
(I148992
I1
tp4054
sS'chean'
p4055
(I59137
I1
tp4056
sVconcurr
p4057
(I67323
I2
tp4058
sS'colombo'
p4059
(I64062
I1
tp4060
sVshoe
p4061
(I220226
I1
tp4062
sS'schmidt'
p4063
(I213862
I1
tp4064
sVhandwrit
p4065
(I117528
I1
tp4066
sVemot
p4067
(I93962
I1
tp4068
sS'corner'
p4069
(I72836
I2
tp4070
sS'malcolm'
p4071
(I153392
I1
tp4072
sVpursuanc
p4073
(I196624
I2
tp4074
sS'data'
p4075
(I77903
I1
tp4076
sS'line'
p4077
(I148910
I6
tp4078
sS'fifth'
p4079
(I105364
I3
tp4080
sS'ground'
p4081
(I115227
I18
tp4082
sS'ab106'
p4083
(I21491
I1
tp4084
sVonli
p4085
(I173380
I23
tp4086
sVslow
p4087
(I224594
I5
tp4088
sVfenc
p4089
(I105035
I2
tp4090
sS'favor'
p4091
(I104279
I2
tp4092
sVincongru
p4093
(I129570
I2
tp4094
sVtransact
p4095
(I249136
I4
tp4096
sS'deck'
p4097
(I79992
I4
tp4098
sVproportion
p4099
(I193428
I2
tp4100
sVstate
p4101
(I229108
I18
tp4102
sS'crime'
p4103
(I76055
I7
tp4104
sVrigidli
p4105
(I209672
I1
tp4106
sS'black'
p4107
(I49959
I3
tp4108
sVanalyz
p4109
(I33863
I1
tp4110
sS'246566'
p4111
(I10735
I1
tp4112
sVconsent
p4113
(I68423
I4
tp4114
sVentireti
p4115
(I95970
I1
tp4116
sS'149mg'
p4117
(I4227
I1
tp4118
sVanalys
p4119
(I33809
I1
tp4120
sVoffici
p4121
(I172046
I3
tp4122
sS'0511'
p4123
(I1097
I1
tp4124
sS'cpib'
p4125
(I75465
I1
tp4126
sS'presbyterian'
p4127
(I189189
I1
tp4128
sVnearli
p4129
(I164268
I2
tp4130
sVvariou
p4131
(I257279
I11
tp4132
sVget
p4133
(I112736
I10
tp4134
sVextrus
p4135
(I102032
I1
tp4136
sVexagger
p4137
(I99014
I1
tp4138
sVsecondari
p4139
(I214580
I1
tp4140
sS'aim'
p4141
(I29812
I3
tp4142
sS'outlet'
p4143
(I177149
I2
tp4144
sVprogress
p4145
(I192682
I1
tp4146
sS'plaintiff'
p4147
(I185178
I8
tp4148
sVvicari
p4149
(I258245
I1
tp4150
sVrequir
p4151
(I206615
I14
tp4152
sVtruli
p4153
(I250865
I2
tp4154
sVperus
p4155
(I183826
I2
tp4156
sVreveal
p4157
(I208829
I4
tp4158
sS'bulk'
p4159
(I52796
I1
tp4160
sS'prima'
p4161
(I190531
I5
tp4162
sS'misbehaviour'
p4163
(I159102
I1
tp4164
sS'workman'
p4165
(I269203
I1
tp4166
sVhostil
p4167
(I123667
I1
tp4168
sS'malaysian'
p4169
(I153323
I5
tp4170
sVborrow
p4171
(I50809
I4
tp4172
sS'ahmad'
p4173
(I29743
I2
tp4174
sVirrespect
p4175
(I135721
I1
tp4176
sVexpedi
p4177
(I100658
I1
tp4178
sS'tension'
p4179
(I238864
I1
tp4180
sS'outlaw'
p4181
(I177135
I1
tp4182
sVmoor
p4183
(I160819
I1
tp4184
sVmediat
p4185
(I156944
I1
tp4186
sS'netto'
p4187
(I165297
I1
tp4188
sS'pang'
p4189
(I179232
I1
tp4190
sS'pridgeon'
p4191
(I190517
I1
tp4192
sS'where'
p4193
(I263464
I22
tp4194
sS'beater'
p4195
(I46269
I1
tp4196
sS'husband'
p4197
(I124929
I7
tp4198
sVsummari
p4199
(I234743
I6
tp4200
sVrepackag
p4201
(I205638
I1
tp4202
sVstair
p4203
(I228740
I1
tp4204
sS'rexach'
p4205
(I209219
I1
tp4206
sS'ab45'
p4207
(I21575
I1
tp4208
sS'vankrisappan'
p4209
(I257181
I1
tp4210
sVmenac
p4211
(I157279
I1
tp4212
sS'maximum'
p4213
(I155670
I8
tp4214
sS'1923'
p4215
(I6023
I1
tp4216
sS'asleep'
p4217
(I40791
I1
tp4218
sS'sean'
p4219
(I214233
I1
tp4220
sVseal
p4221
(I214206
I2
tp4222
sVreserv
p4223
(I206822
I4
tp4224
sS'1929'
p4225
(I6037
I1
tp4226
sS'20pm'
p4227
(I9306
I1
tp4228
sVconcern
p4229
(I66681
I15
tp4230
sS'loyd'
p4231
(I151283
I1
tp4232
sVherschel
p4233
(I120634
I1
tp4234
sVdetect
p4235
(I83591
I1
tp4236
sS'836'
p4237
(I20021
I1
tp4238
sVtelevis
p4239
(I238367
I3
tp4240
sVmortgage
p4241
(I161407
I1
tp4242
sS'sunglo'
p4243
(I234951
I1
tp4244
sVreview
p4245
(I209064
I4
tp4246
sVamen
p4247
(I32872
I2
tp4248
sVenumer
p4249
(I96203
I2
tp4250
sS'giau'
p4251
(I112901
I1
tp4252
sVlabel
p4253
(I142963
I1
tp4254
sVsir
p4255
(I223767
I4
tp4256
sVestat
p4257
(I97449
I4
tp4258
sS'un'
p4259
(I251965
I1
tp4260
sS'bureau'
p4261
(I52949
I5
tp4262
sVvoluntari
p4263
(I259427
I4
tp4264
sS'p5'
p4265
(I178665
I1
tp4266
sS'between'
p4267
(I49074
I19
tp4268
sS'mandarin'
p4269
(I153833
I4
tp4270
sVimport
p4271
(I127578
I13
tp4272
sVlitig
p4273
(I149268
I1
tp4274
sVacross
p4275
(I24908
I6
tp4276
sS'tantamount'
p4277
(I237683
I1
tp4278
sVfight
p4279
(I105404
I3
tp4280
sVassumpt
p4281
(I41766
I3
tp4282
sS'fitzalan'
p4283
(I106919
I1
tp4284
sS'august'
p4285
(I42848
I9
tp4286
sVparent
p4287
(I179720
I2
tp4288
sS'livestock'
p4289
(I149516
I1
tp4290
sVscreen
p4291
(I214068
I2
tp4292
sVpreach
p4293
(I188413
I1
tp4294
sVobscen
p4295
(I169656
I1
tp4296
sS'supermarket'
p4297
(I234992
I1
tp4298
sS'blame'
p4299
(I50013
I1
tp4300
sVcycl
p4301
(I77420
I1
tp4302
sS'354'
p4303
(I13746
I1
tp4304
sS'mei'
p4305
(I157083
I1
tp4306
sVunauthoris
p4307
(I252239
I1
tp4308
sS'tua'
p4309
(I251095
I2
tp4310
sS'comb'
p4311
(I64172
I1
tp4312
sVcome
p4313
(I64266
I12
tp4314
sS'ja'
p4315
(I137464
I4
tp4316
sS'kalpanath'
p4317
(I140476
I1
tp4318
sS'reaction'
p4319
(I199794
I2
tp4320
sVloudli
p4321
(I151049
I2
tp4322
sVreluctantli
p4323
(I204803
I1
tp4324
sS'safeguard'
p4325
(I211508
I3
tp4326
sS'sodium'
p4327
(I225534
I1
tp4328
sVimprob
p4329
(I128270
I2
tp4330
sS'contract'
p4331
(I70919
I7
tp4332
sVtemper
p4333
(I238545
I1
tp4334
sS'256'
p4335
(I11134
I1
tp4336
sVpray
p4337
(I188346
I2
tp4338
sS's'
p4339
(I211017
I25
tp4340
sVinconsist
p4341
(I129638
I6
tp4342
sVfunctu
p4343
(I111154
I1
tp4344
sVmani
p4345
(I153985
I9
tp4346
sVimprop
p4347
(I128297
I4
tp4348
sS'among'
p4349
(I33078
I6
tp4350
sVacceler
p4351
(I23096
I1
tp4352
sS'amarjit'
p4353
(I32776
I2
tp4354
sVtriabl
p4355
(I249938
I1
tp4356
sS'jj'
p4357
(I138020
I1
tp4358
sS'bhajja'
p4359
(I49491
I1
tp4360
sS'adroit'
p4361
(I27027
I1
tp4362
sS'pot'
p4363
(I187713
I1
tp4364
sS'period'
p4365
(I182911
I11
tp4366
sVcustodi
p4367
(I77216
I7
tp4368
sS'beep'
p4369
(I47309
I1
tp4370
sVduti
p4371
(I91515
I11
tp4372
sS'62'
p4373
(I18159
I2
tp4374
sS'63'
p4375
(I18228
I3
tp4376
sS'64'
p4377
(I18282
I1
tp4378
sS'65'
p4379
(I18338
I3
tp4380
sS'poh'
p4381
(I186089
I3
tp4382
sS'67'
p4383
(I18475
I5
tp4384
sS'68'
p4385
(I18558
I7
tp4386
sVtypic
p4387
(I251840
I1
tp4388
sVinadvert
p4389
(I128964
I1
tp4390
sS'253'
p4391
(I11106
I1
tp4392
sVdamag
p4393
(I77683
I8
tp4394
sS'peng'
p4395
(I182483
I2
tp4396
sS'most'
p4397
(I161435
I13
tp4398
sVseiz
p4399
(I215711
I8
tp4400
sVcoupl
p4401
(I74578
I3
tp4402
sVstretch
p4403
(I231481
I2
tp4404
sS'abdul'
p4405
(I21786
I5
tp4406
sVhardli
p4407
(I117752
I3
tp4408
sVmark
p4409
(I154676
I6
tp4410
sS'breath'
p4411
(I51718
I1
tp4412
sS'prime'
p4413
(I190709
I2
tp4414
sVconfiscat
p4415
(I68093
I1
tp4416
sS'thean'
p4417
(I240831
I7
tp4418
sS'508'
p4419
(I16702
I1
tp4420
sS'507'
p4421
(I16688
I1
tp4422
sS'joo'
p4423
(I138489
I4
tp4424
sS'1036'
p4425
(I2105
I1
tp4426
sVsurplu
p4427
(I235739
I2
tp4428
sS'500'
p4429
(I16552
I8
tp4430
sS'impugn'
p4431
(I128367
I3
tp4432
sVchalet
p4433
(I58179
I1
tp4434
sS'gist'
p4435
(I113055
I2
tp4436
sS'mong'
p4437
(I160463
I2
tp4438
sVemphas
p4439
(I94003
I2
tp4440
sS'thousand'
p4441
(I245272
I1
tp4442
sS'400'
p4443
(I14836
I1
tp4444
sS'6m'
p4445
(I18737
I1
tp4446
sVsubsidiari
p4447
(I233105
I1
tp4448
sS'caesarean'
p4449
(I54233
I1
tp4450
sS'lalit'
p4451
(I143356
I1
tp4452
sS'hoong'
p4453
(I123503
I1
tp4454
sVrobberi
p4455
(I210106
I3
tp4456
sVabrog
p4457
(I22665
I1
tp4458
sS'leck'
p4459
(I145630
I1
tp4460
sS'extant'
p4461
(I101605
I1
tp4462
sVlectur
p4463
(I145644
I1
tp4464
sS'tamil'
p4465
(I237421
I2
tp4466
sS'former'
p4467
(I108919
I6
tp4468
sS'those'
p4469
(I244736
I16
tp4470
sVcountless
p4471
(I74550
I1
tp4472
sS'sound'
p4473
(I227180
I2
tp4474
sVnotorieti
p4475
(I168270
I1
tp4476
sS'50m'
p4477
(I16744
I1
tp4478
sS'keok'
p4479
(I140942
I1
tp4480
sVliais
p4481
(I147658
I1
tp4482
sS'these'
p4483
(I243089
I24
tp4484
sS'negara'
p4485
(I164950
I1
tp4486
sS'45am'
p4487
(I15656
I3
tp4488
sS'thigh'
p4489
(I244118
I1
tp4490
sS'cash'
p4491
(I56753
I5
tp4492
sVimperi
p4493
(I127371
I1
tp4494
sS'cast'
p4495
(I56836
I6
tp4496
sVinvok
p4497
(I135267
I2
tp4498
sVcure
p4499
(I77146
I1
tp4500
sVoutcom
p4501
(I177081
I3
tp4502
sS'1100'
p4503
(I2670
I1
tp4504
sS'lenient'
p4505
(I146670
I1
tp4506
sVsubsist
p4507
(I233119
I1
tp4508
sS'keow'
p4509
(I140996
I1
tp4510
sVgenuin
p4511
(I112599
I2
tp4512
sVinculpatori
p4513
(I129898
I2
tp4514
sVpromin
p4515
(I192806
I1
tp4516
sS'lookout'
p4517
(I150498
I1
tp4518
sS'koon'
p4519
(I142633
I1
tp4520
sS'noel'
p4521
(I166744
I1
tp4522
sVbedsheet
p4523
(I46897
I1
tp4524
sVadvantag
p4525
(I27194
I5
tp4526
sS'heng'
p4527
(I120018
I5
tp4528
sVstrait
p4529
(I231181
I2
tp4530
sVhenc
p4531
(I119949
I5
tp4532
sVconvinc
p4533
(I72221
I7
tp4534
sVdestin
p4535
(I83358
I1
tp4536
sVunsatisfactori
p4537
(I254683
I3
tp4538
sS'sudden'
p4539
(I233921
I1
tp4540
sS'ricquier'
p4541
(I209302
I1
tp4542
sS'samta'
p4543
(I212477
I1
tp4544
sS'thankerton'
p4545
(I240051
I1
tp4546
sS'1895'
p4547
(I5722
I1
tp4548
sVoutrag
p4549
(I177190
I4
tp4550
sVverac
p4551
(I257671
I5
tp4552
sS'absurd'
p4553
(I22914
I1
tp4554
sVpursu
p4555
(I196597
I2
tp4556
sS'everyday'
p4557
(I98384
I2
tp4558
sS'1897'
p4559
(I5763
I1
tp4560
sVinquiri
p4561
(I132074
I7
tp4562
sS'harsh'
p4563
(I117833
I1
tp4564
sVauthor
p4565
(I43040
I16
tp4566
sS'pay'
p4567
(I181740
I9
tp4568
sVpester
p4569
(I183867
I1
tp4570
sVwoodland
p4571
(I268700
I1
tp4572
sVabdic
p4573
(I21716
I1
tp4574
sS'same'
p4575
(I212172
I18
tp4576
sVtrip
p4577
(I250547
I1
tp4578
sS'bermuda'
p4579
(I48893
I1
tp4580
sS'speech'
p4581
(I227794
I3
tp4582
sS'1947'
p4583
(I6134
I1
tp4584
sS'muthan'
p4585
(I162767
I1
tp4586
sVpreparatori
p4587
(I189147
I1
tp4588
sVeventu
p4589
(I98096
I7
tp4590
sS'dw4'
p4591
(I91737
I2
tp4592
sS'pan'
p4593
(I179204
I1
tp4594
sVequat
p4595
(I96491
I2
tp4596
sVweek
p4597
(I261620
I10
tp4598
sVexhaust
p4599
(I100271
I1
tp4600
sVstatutori
p4601
(I229850
I8
tp4602
sVfinish
p4603
(I106376
I2
tp4604
sVstatut
p4605
(I229810
I3
tp4606
sS'kelvin'
p4607
(I140914
I1
tp4608
sVassist
p4609
(I41355
I14
tp4610
sVdriver
p4611
(I90641
I7
tp4612
sVsomeon
p4613
(I226132
I9
tp4614
sVcompanion
p4615
(I65483
I1
tp4616
sS'driven'
p4617
(I90601
I3
tp4618
sVcapabl
p4619
(I55586
I5
tp4620
sS'petticoat'
p4621
(I184077
I1
tp4622
sVassigne
p4623
(I41341
I1
tp4624
sVpostpon
p4625
(I187673
I3
tp4626
sS'pradesh'
p4627
(I188304
I1
tp4628
sVfallibl
p4629
(I103543
I1
tp4630
sVtraine
p4631
(I249094
I1
tp4632
sVappropri
p4633
(I37852
I8
tp4634
sVrip
p4635
(I209740
I1
tp4636
sVreliev
p4637
(I204762
I1
tp4638
sVchoos
p4639
(I60248
I1
tp4640
sS'floor'
p4641
(I107360
I4
tp4642
sVcommission
p4643
(I64872
I2
tp4644
sS'bailiff'
p4645
(I44791
I1
tp4646
sVjustifi
p4647
(I140244
I13
tp4648
sS'without'
p4649
(I267985
I22
tp4650
sS'relief'
p4651
(I204748
I1
tp4652
sVintermediari
p4653
(I134054
I1
tp4654
sS'568'
p4655
(I17431
I1
tp4656
sVmodel
p4657
(I159913
I2
tp4658
sVworkplac
p4659
(I269217
I1
tp4660
sS'taxi'
p4661
(I237954
I3
tp4662
sS'sslr'
p4663
(I228532
I1
tp4664
sS'ia'
p4665
(I125420
I1
tp4666
sS'215'
p4667
(I9511
I1
tp4668
sS'212'
p4669
(I9483
I1
tp4670
sVabund
p4671
(I22928
I1
tp4672
sVexecut
p4673
(I99941
I5
tp4674
sS'vent'
p4675
(I257643
I1
tp4676
sS'313'
p4677
(I13099
I2
tp4678
sS'money'
p4679
(I160308
I10
tp4680
sVrest
p4681
(I207816
I8
tp4682
sS'roslan'
p4683
(I210575
I1
tp4684
sS'oxford'
p4685
(I178250
I2
tp4686
sVviolent
p4687
(I258959
I1
tp4688
sS'ch'
p4689
(I58095
I1
tp4690
sVkill
p4691
(I141436
I3
tp4692
sVaspect
p4693
(I40819
I7
tp4694
sS'chacha'
p4695
(I58109
I1
tp4696
sS'ps2'
p4697
(I195082
I1
tp4698
sS'n'
p4699
(I163155
I3
tp4700
sS'138'
p4701
(I3856
I1
tp4702
sS'speed'
p4703
(I227834
I2
tp4704
sVaddresse
p4705
(I26267
I1
tp4706
sS'viii'
p4707
(I258835
I2
tp4708
sVconcentr
p4709
(I66626
I2
tp4710
sVindulg
p4711
(I130820
I1
tp4712
sS'death'
p4713
(I79000
I8
tp4714
sS'mcdonald'
p4715
(I156130
I1
tp4716
sVtrigger
p4717
(I250533
I1
tp4718
sS'except'
p4719
(I99482
I9
tp4720
sVlittl
p4721
(I149282
I9
tp4722
sVidentif
p4723
(I125612
I2
tp4724
sVinstrument
p4725
(I133034
I3
tp4726
sS'789'
p4727
(I19565
I1
tp4728
sVhing
p4729
(I122468
I2
tp4730
sS'treatment'
p4731
(I249650
I1
tp4732
sVexercis
p4733
(I100067
I13
tp4734
sS'jong'
p4735
(I138475
I1
tp4736
sS'struck'
p4737
(I231812
I2
tp4738
sS'heavier'
p4739
(I119449
I2
tp4740
sS'696'
p4741
(I18695
I1
tp4742
sS'kingdom'
p4743
(I141600
I2
tp4744
sS'panjang'
p4745
(I179261
I2
tp4746
sS'around'
p4747
(I39382
I9
tp4748
sS'younger'
p4749
(I271623
I1
tp4750
sS'read'
p4751
(I199835
I18
tp4752
sVrejoin
p4753
(I203755
I1
tp4754
sS'specimen'
p4755
(I227753
I2
tp4756
sS'psa'
p4757
(I195096
I2
tp4758
sVladi
p4759
(I143189
I4
tp4760
sS'chye'
p4761
(I60607
I3
tp4762
sS'dark'
p4763
(I77861
I1
tp4764
sS'moh'
p4765
(I160062
I1
tp4766
sS'traffic'
p4767
(I248912
I7
tp4768
sVinsist
p4769
(I132294
I4
tp4770
sS'detract'
p4771
(I83960
I1
tp4772
sVloos
p4773
(I150526
I1
tp4774
sS'world'
p4775
(I269231
I4
tp4776
sS'rear'
p4777
(I200489
I3
tp4778
sS'60'
p4779
(I18008
I5
tp4780
sS'christina'
p4781
(I60400
I1
tp4782
sS'towel'
p4783
(I248732
I3
tp4784
sS'20m'
p4785
(I9292
I1
tp4786
sS'stranger'
p4787
(I231275
I2
tp4788
sVvoluntarili
p4789
(I259483
I7
tp4790
sS's1091887a'
p4791
(I211382
I1
tp4792
sS'bracelet'
p4793
(I51418
I2
tp4794
sS'exploit'
p4795
(I101277
I1
tp4796
sS'bail'
p4797
(I44763
I1
tp4798
sS'ganesh'
p4799
(I111937
I1
tp4800
sVchamber
p4801
(I58290
I1
tp4802
sVbenefit
p4803
(I48700
I10
tp4804
sS'sic'
p4805
(I221467
I4
tp4806
sS'either'
p4807
(I93293
I15
tp4808
sS'anti'
p4809
(I35463
I1
tp4810
sVtower
p4811
(I248772
I2
tp4812
sS'inter'
p4813
(I133626
I7
tp4814
sVmanag
p4815
(I153639
I14
tp4816
sVobstruct
p4817
(I169874
I2
tp4818
sS'hougang'
p4819
(I123723
I1
tp4820
sVdeduct
p4821
(I80172
I3
tp4822
sS'alan'
p4823
(I30005
I2
tp4824
sS'66'
p4825
(I18406
I1
tp4826
sVsharehold
p4827
(I219627
I1
tp4828
sVconstabl
p4829
(I69363
I2
tp4830
sVcornwal
p4831
(I72863
I1
tp4832
sS'lebanon'
p4833
(I145616
I1
tp4834
sVmuscl
p4835
(I162448
I1
tp4836
sVanomal
p4837
(I34848
I1
tp4838
sVcancel
p4839
(I55131
I3
tp4840
sVsatisfactori
p4841
(I212724
I1
tp4842
sVadequ
p4843
(I26405
I4
tp4844
sS'najjar'
p4845
(I163293
I1
tp4846
sVbonu
p4847
(I50592
I1
tp4848
sS'respect'
p4849
(I207081
I18
tp4850
sS'sen'
p4851
(I216097
I2
tp4852
sS'canteen'
p4853
(I55227
I1
tp4854
sVconstitut
p4855
(I69431
I8
tp4856
sS'9496'
p4857
(I20706
I1
tp4858
sVgross
p4859
(I115199
I1
tp4860
sS'mood'
p4861
(I160777
I1
tp4862
sS'dunbar'
p4863
(I91212
I1
tp4864
sVconfirm
p4865
(I67926
I10
tp4866
sS'dw7'
p4867
(I91764
I1
tp4868
sS'noon'
p4869
(I167006
I2
tp4870
sS'wore'
p4871
(I268995
I1
tp4872
sVdefinit
p4873
(I81023
I6
tp4874
sS'token'
p4875
(I247534
I1
tp4876
sS'legal'
p4877
(I146149
I9
tp4878
sS'moon'
p4879
(I160791
I1
tp4880
sS'initio'
p4881
(I131732
I1
tp4882
sS'2g'
p4883
(I12241
I1
tp4884
sS'exit'
p4885
(I100479
I1
tp4886
sS'moot'
p4887
(I160848
I1
tp4888
sS'84a'
p4889
(I20103
I1
tp4890
sS'71'
p4891
(I19153
I3
tp4892
sVeconom
p4893
(I92614
I1
tp4894
sVunbeliev
p4895
(I252349
I1
tp4896
sS'uch'
p4897
(I251854
I1
tp4898
sVcomplic
p4899
(I66295
I4
tp4900
sS'081'
p4901
(I1316
I1
tp4902
sS'knife'
p4903
(I141886
I1
tp4904
sVrefer
p4905
(I202145
I19
tp4906
sVdocumentari
p4907
(I88832
I1
tp4908
sVundertak
p4909
(I253138
I2
tp4910
sS'power'
p4911
(I187851
I12
tp4912
sS'asphyxia'
p4913
(I40928
I1
tp4914
sVmover
p4915
(I162014
I1
tp4916
sS'sixth'
p4917
(I224278
I3
tp4918
sVinspect
p4919
(I132405
I3
tp4920
sS'broker'
p4921
(I52200
I2
tp4922
sS'substratum'
p4923
(I233379
I1
tp4924
sS'1932'
p4925
(I6065
I1
tp4926
sS'1931'
p4927
(I6051
I1
tp4928
sVclarif
p4929
(I61941
I1
tp4930
sS'1935'
p4931
(I6093
I1
tp4932
sVfulli
p4933
(I111028
I4
tp4934
sVpowel
p4935
(I187837
I1
tp4936
sVimmut
p4937
(I127246
I1
tp4938
sVreferr
p4939
(I202409
I1
tp4940
sS'1938'
p4941
(I6107
I2
tp4942
sS'bona'
p4943
(I50551
I2
tp4944
sS'seong'
p4945
(I216862
I2
tp4946
sVnecess
p4947
(I164295
I1
tp4948
sS'on'
p4949
(I172388
I25
tp4950
sVstone
p4951
(I230714
I1
tp4952
sVpatent
p4953
(I181562
I3
tp4954
sS'central'
p4955
(I57734
I5
tp4956
sS'oh'
p4957
(I172156
I1
tp4958
sS'of'
p4959
(I170805
I25
tp4960
sS'sri'
p4961
(I228381
I1
tp4962
sS'chon'
p4963
(I60071
I1
tp4964
sS'choo'
p4965
(I60168
I3
tp4966
sS'chop'
p4967
(I60262
I3
tp4968
sVstanc
p4969
(I228795
I1
tp4970
sS'fell'
p4971
(I104815
I3
tp4972
sS'stand'
p4973
(I228809
I8
tp4974
sVknave
p4975
(I141695
I1
tp4976
sS'chow'
p4977
(I60372
I1
tp4978
sS'choy'
p4979
(I60386
I1
tp4980
sVindustri
p4981
(I130834
I4
tp4982
sS'bond'
p4983
(I50578
I1
tp4984
sS'os'
p4985
(I175923
I2
tp4986
sS'or'
p4987
(I174817
I25
tp4988
sS'road'
p4989
(I209894
I14
tp4990
sS'zaki'
p4991
(I271819
I1
tp4992
sVdictat
p4993
(I84333
I1
tp4994
sS'california'
p4995
(I54358
I1
tp4996
sVjuxtaposit
p4997
(I140420
I1
tp4998
sVanybodi
p4999
(I35518
I1
tp5000
sS'rondel'
p5001
(I210422
I1
tp5002
sVunfaith
p5003
(I253527
I1
tp5004
sS'hindsight'
p5005
(I122441
I2
tp5006
sVreassess
p5007
(I200877
I1
tp5008
sVlastli
p5009
(I143931
I1
tp5010
sS'surinam'
p5011
(I235725
I1
tp5012
sVunregist
p5013
(I254558
I1
tp5014
sS'246626'
p5015
(I10791
I1
tp5016
sVsmoothen
p5017
(I225006
I1
tp5018
sS'unsound'
p5019
(I254750
I1
tp5020
sVadduc
p5021
(I26281
I9
tp5022
sS'strip'
p5023
(I231632
I1
tp5024
sS'neil'
p5025
(I165120
I1
tp5026
sS'tanglin'
p5027
(I237655
I1
tp5028
sVairlin
p5029
(I29922
I1
tp5030
sS'your'
p5031
(I271637
I4
tp5032
sVheadnot
p5033
(I118817
I1
tp5034
sS'fast'
p5035
(I103993
I5
tp5036
sS'log'
p5037
(I149971
I1
tp5038
sS'her'
p5039
(I120087
I18
tp5040
sS'246391'
p5041
(I10525
I1
tp5042
sS'distrain'
p5043
(I87813
I1
tp5044
sS'15m'
p5045
(I4515
I1
tp5046
sS'salient'
p5047
(I212103
I1
tp5048
sS'there'
p5049
(I241963
I23
tp5050
sS'hee'
p5051
(I119545
I1
tp5052
sS'loo'
p5053
(I150288
I4
tp5054
sS'1800'
p5055
(I5445
I1
tp5056
sVilleg
p5057
(I126668
I7
tp5058
sVstart
p5059
(I229026
I6
tp5060
sVfisheri
p5061
(I106849
I1
tp5062
sS'low'
p5063
(I151132
I3
tp5064
sS'freehold'
p5065
(I110175
I1
tp5066
sS'garment'
p5067
(I112047
I1
tp5068
sVsubmiss
p5069
(I232255
I14
tp5070
sVpremis
p5071
(I188929
I7
tp5072
sS'valley'
p5073
(I256934
I1
tp5074
sS'tight'
p5075
(I246387
I1
tp5076
sVbottl
p5077
(I51195
I1
tp5078
sS'750'
p5079
(I19523
I1
tp5080
sS'mischief'
p5081
(I159143
I1
tp5082
sS'ting'
p5083
(I246805
I1
tp5084
sS'enough'
p5085
(I95380
I4
tp5086
sVconclud
p5087
(I66913
I7
tp5088
sVbundl
p5089
(I52824
I2
tp5090
sS'regard'
p5091
(I202822
I20
tp5092
sVconcess
p5093
(I66885
I1
tp5094
sS'amongst'
p5095
(I33160
I3
tp5096
sS'idea'
p5097
(I125503
I1
tp5098
sVdisobedi
p5099
(I87001
I1
tp5100
sS'expressway'
p5101
(I101591
I1
tp5102
sVfractur
p5103
(I109914
I2
tp5104
sS'with'
p5105
(I267267
I25
tp5106
sVconclus
p5107
(I67008
I15
tp5108
sS'faster'
p5109
(I104062
I2
tp5110
sVpull
p5111
(I195607
I3
tp5112
sS'hire'
p5113
(I122523
I2
tp5114
sS'fraud'
p5115
(I110038
I2
tp5116
sS'pulukuri'
p5117
(I195647
I1
tp5118
sVpossibl
p5119
(I187469
I8
tp5120
sVdefault
p5121
(I80351
I4
tp5122
sS'reflex'
p5123
(I202506
I1
tp5124
sS'vice'
p5125
(I258259
I1
tp5126
sVpreponder
p5127
(I189161
I1
tp5128
sVunarm
p5129
(I252197
I1
tp5130
sS'orissa'
p5131
(I175909
I1
tp5132
sVuneth
p5133
(I253429
I1
tp5134
sS'horseplay'
p5135
(I123599
I1
tp5136
sS'west'
p5137
(I262804
I1
tp5138
sS'taught'
p5139
(I237873
I1
tp5140
sVderog
p5141
(I82835
I1
tp5142
sS'mathavan'
p5143
(I155306
I1
tp5144
sS'rodyk'
p5145
(I210217
I1
tp5146
sS'266'
p5147
(I11479
I3
tp5148
sS'1954'
p5149
(I6342
I1
tp5150
sVgrass
p5151
(I114829
I2
tp5152
sS'torso'
p5153
(I248214
I1
tp5154
sVexpect
p5155
(I100507
I10
tp5156
sS'gone'
p5157
(I114157
I7
tp5158
sS'ac'
p5159
(I23012
I4
tp5160
sS'ab'
p5161
(I21462
I2
tp5162
sVextraordinari
p5163
(I101922
I1
tp5164
sVad
p5165
(I25802
I8
tp5166
sVcreat
p5167
(I75670
I7
tp5168
sS'cinema'
p5169
(I60675
I1
tp5170
sS'ai'
p5171
(I29771
I1
tp5172
sS'ah'
p5173
(I29565
I7
tp5174
sS'am'
p5175
(I32666
I7
tp5176
sS'al'
p5177
(I29991
I1
tp5178
sS'deep'
p5179
(I80282
I1
tp5180
sS'an'
p5181
(I33395
I25
tp5182
sVstrongli
p5183
(I231798
I1
tp5184
sS'mini'
p5185
(I158871
I1
tp5186
sS'as'
p5187
(I39976
I25
tp5188
sVdeem
p5189
(I80226
I4
tp5190
sVdecreas
p5191
(I80158
I1
tp5192
sS'at'
p5193
(I41874
I24
tp5194
sVfile
p5195
(I105471
I8
tp5196
sS'keong'
p5197
(I140956
I3
tp5198
sVmomentarili
p5199
(I160267
I1
tp5200
sVmitchel
p5201
(I159541
I2
tp5202
sVencompass
p5203
(I94603
I1
tp5204
sVproport
p5205
(I193414
I1
tp5206
sVcontributori
p5207
(I71493
I2
tp5208
sS'periyaswami'
p5209
(I183092
I1
tp5210
sVfill
p5211
(I105579
I3
tp5212
sS'yoo'
p5213
(I271358
I1
tp5214
sS'again'
p5215
(I28407
I15
tp5216
sVcollid
p5217
(I63980
I2
tp5218
sS'extract'
p5219
(I101866
I4
tp5220
sS'compel'
p5221
(I65552
I4
tp5222
sVmarketplac
p5223
(I154787
I1
tp5224
sVreduct
p5225
(I202104
I1
tp5226
sS'rubber'
p5227
(I210715
I1
tp5228
sVfield
p5229
(I105350
I1
tp5230
sS'valid'
p5231
(I256839
I7
tp5232
sVcompet
p5233
(I65635
I7
tp5234
sS'talisman'
p5235
(I237310
I1
tp5236
sS'464'
p5237
(I15766
I1
tp5238
sS'allsop'
p5239
(I31280
I1
tp5240
sVignor
p5241
(I126262
I7
tp5242
sS'you'
p5243
(I271386
I14
tp5244
sVintermedi
p5245
(I134027
I2
tp5246
sVspillag
p5247
(I228026
I1
tp5248
sS'poor'
p5249
(I186792
I3
tp5250
sS'policemen'
p5251
(I186679
I1
tp5252
sVregistri
p5253
(I203345
I1
tp5254
sS'asiaweek'
p5255
(I40474
I1
tp5256
sS'veraand'
p5257
(I257657
I1
tp5258
sVsequenc
p5259
(I217081
I5
tp5260
sS'450'
p5261
(I15502
I1
tp5262
sVcordless
p5263
(I72822
I1
tp5264
sS'podium'
p5265
(I186075
I1
tp5266
sS'flower'
p5267
(I107458
I1
tp5268
sS'recent'
p5269
(I201304
I5
tp5270
sS'napier'
p5271
(I163720
I2
tp5272
sS'595'
p5273
(I17595
I1
tp5274
sS'488'
p5275
(I16084
I1
tp5276
sVsafeti
p5277
(I211562
I3
tp5278
sVparson
p5279
(I179951
I1
tp5280
sS'prudent'
p5281
(I195042
I3
tp5282
sVpeac
p5283
(I182085
I1
tp5284
sVinexplic
p5285
(I130987
I2
tp5286
sVadmiss
p5287
(I26624
I5
tp5288
sVreduc
p5289
(I202035
I5
tp5290
sVdeliber
p5291
(I81255
I6
tp5292
sS'cpl'
p5293
(I75479
I1
tp5294
sS'wife'
p5295
(I266165
I11
tp5296
sVdirectori
p5297
(I85732
I1
tp5298
sVinvest
p5299
(I135034
I1
tp5300
sS'cpc'
p5301
(I75379
I4
tp5302
sVdescript
p5303
(I82985
I4
tp5304
sS'cpf'
p5305
(I75437
I1
tp5306
sVinevit
p5307
(I130918
I2
tp5308
sVrepay
p5309
(I205667
I2
tp5310
sS'derrick'
p5311
(I82849
I1
tp5312
sVadam
p5313
(I25910
I2
tp5314
sVpotenti
p5315
(I187727
I5
tp5316
sS'alright'
p5317
(I31827
I1
tp5318
sVescap
p5319
(I96932
I3
tp5320
sVinvoic
p5321
(I135240
I2
tp5322
sVcredenc
p5323
(I75779
I1
tp5324
sS'oral'
p5325
(I175177
I3
tp5326
sS'childish'
p5327
(I59797
I1
tp5328
sS'bahru'
p5329
(I44736
I2
tp5330
sVmcfarlan
p5331
(I156144
I1
tp5332
sVrepresent
p5333
(I206354
I2
tp5334
sS'all'
p5335
(I30370
I25
tp5336
sS'liar'
p5337
(I147726
I1
tp5338
sVconsider
p5339
(I68935
I16
tp5340
sVvaluer
p5341
(I257126
I1
tp5342
sVillustr
p5343
(I126792
I4
tp5344
sVprotract
p5345
(I194368
I2
tp5346
sS'pte'
p5347
(I195137
I9
tp5348
sS'lack'
p5349
(I143022
I11
tp5350
sVdollar
p5351
(I89023
I3
tp5352
sS'scc'
p5353
(I213653
I1
tp5354
sVmonth
p5355
(I160504
I17
tp5356
sVbequeath
p5357
(I48879
I1
tp5358
sVabil
p5359
(I21936
I2
tp5360
sS'lian'
p5361
(I147672
I3
tp5362
sVfollow
p5363
(I107543
I22
tp5364
sS'settlement'
p5365
(I218190
I2
tp5366
sS'children'
p5367
(I59811
I3
tp5368
sVabid
p5369
(I21909
I2
tp5370
sS'serviceman'
p5371
(I217794
I1
tp5372
sS'rd'
p5373
(I199477
I2
tp5374
sVinconceiv
p5375
(I129516
I3
tp5376
sS'chain'
p5377
(I58151
I1
tp5378
sVresum
p5379
(I208333
I1
tp5380
sVincap
p5381
(I129046
I4
tp5382
sS'thursday'
p5383
(I246278
I1
tp5384
sVarticl
p5385
(I39917
I4
tp5386
sS'to'
p5387
(I246916
I25
tp5388
sVjoann
p5389
(I138048
I1
tp5390
sS'foster'
p5391
(I109261
I2
tp5392
sS'arisen'
p5393
(I39190
I2
tp5394
sS'scratch'
p5395
(I214001
I2
tp5396
sS'health'
p5397
(I118858
I3
tp5398
sVscrutini
p5399
(I214136
I1
tp5400
sVneglig
p5401
(I164965
I4
tp5402
sVcompuls
p5403
(I66448
I1
tp5404
sVintroduc
p5405
(I134912
I3
tp5406
sS'cautela'
p5407
(I57416
I1
tp5408
sS'washroom'
p5409
(I260820
I1
tp5410
sS'case'
p5411
(I56398
I25
tp5412
sS'fax'
p5413
(I104414
I1
tp5414
sS'woman'
p5415
(I268371
I8
tp5416
sS'premium'
p5417
(I189024
I2
tp5418
sS'ok'
p5419
(I172199
I1
tp5420
sVreplic
p5421
(I206048
I1
tp5422
sS'far'
p5423
(I103777
I13
tp5424
sS'horror'
p5425
(I123558
I1
tp5426
sS'ibrhim'
p5427
(I125489
I1
tp5428
sS'myself'
p5429
(I163128
I2
tp5430
sVordin
p5431
(I175566
I3
tp5432
sS'eldest'
p5433
(I93537
I1
tp5434
sVutil
p5435
(I256419
I1
tp5436
sS'personnel'
p5437
(I183620
I2
tp5438
sVhypocrit
p5439
(I125039
I1
tp5440
sS'verb'
p5441
(I257740
I1
tp5442
sVmechan
p5443
(I156890
I3
tp5444
sVverg
p5445
(I257754
I2
tp5446
sVfailur
p5447
(I103116
I10
tp5448
sVveri
p5449
(I257781
I17
tp5450
sVticket
p5451
(I246319
I2
tp5452
sS'archaic'
p5453
(I38207
I1
tp5454
sVstrang
p5455
(I231235
I3
tp5456
sS'strand'
p5457
(I231208
I2
tp5458
sValien
p5459
(I30275
I1
tp5460
sS'retrial'
p5461
(I208513
I2
tp5462
sS'100060'
p5463
(I2022
I1
tp5464
sS'455'
p5465
(I15600
I1
tp5466
sVletchime
p5467
(I147151
I1
tp5468
sVharri
p5469
(I117806
I2
tp5470
sS'list'
p5471
(I149076
I7
tp5472
sS'621'
p5473
(I18186
I1
tp5474
sVamend
p5475
(I32899
I9
tp5476
sVwss
p5477
(I270204
I1
tp5478
sVtacitli
p5479
(I236649
I1
tp5480
sVvolit
p5481
(I259413
I1
tp5482
sS'small'
p5483
(I224801
I5
tp5484
sS'bench'
p5485
(I48645
I1
tp5486
sVcurabl
p5487
(I77118
I1
tp5488
sVmount
p5489
(I161863
I2
tp5490
sS'50am'
p5491
(I16716
I1
tp5492
sS'coffeeshop'
p5493
(I63692
I2
tp5494
sS'900'
p5495
(I20569
I1
tp5496
sS'199'
p5497
(I7340
I1
tp5498
sS'198'
p5499
(I6918
I1
tp5500
sS'ten'
p5501
(I238573
I8
tp5502
sS'asr'
p5503
(I40942
I1
tp5504
sS'195'
p5505
(I6231
I1
tp5506
sS'tea'
p5507
(I238065
I1
tp5508
sS'196'
p5509
(I6438
I1
tp5510
sS'191'
p5511
(I5940
I2
tp5512
sS'tee'
p5513
(I238231
I3
tp5514
sS'192'
p5515
(I6009
I1
tp5516
sS'tex'
p5517
(I239664
I1
tp5518
sVmiscarriag
p5519
(I159116
I2
tp5520
sS'rate'
p5521
(I199205
I6
tp5522
sS'asp'
p5523
(I40805
I1
tp5524
sVdesign
p5525
(I83068
I4
tp5526
sS'lawyer'
p5527
(I144805
I3
tp5528
sVpass
p5529
(I181120
I11
tp5530
sVcanvass
p5531
(I55255
I2
tp5532
sS'further'
p5533
(I111279
I22
tp5534
sS'basuri'
p5535
(I45682
I1
tp5536
sVevan
p5537
(I97603
I1
tp5538
sVhamper
p5539
(I117009
I2
tp5540
sS'pui'
p5541
(I195593
I1
tp5542
sVserv
p5543
(I217550
I7
tp5544
sS'what'
p5545
(I262818
I16
tp5546
sS'stood'
p5547
(I230728
I3
tp5548
sS'sub'
p5549
(I231950
I6
tp5550
sS'richard'
p5551
(I209275
I2
tp5552
sS'sun'
p5553
(I234881
I1
tp5554
sS'section'
p5555
(I214759
I16
tp5556
sVadvanc
p5557
(I27138
I4
tp5558
sVabl
p5559
(I21963
I11
tp5560
sS'brief'
p5561
(I51773
I4
tp5562
sVcrush
p5563
(I76857
I1
tp5564
sVdelet
p5565
(I81241
I1
tp5566
sVabbrevi
p5567
(I21702
I1
tp5568
sS'version'
p5569
(I258041
I8
tp5570
sVhampshir
p5571
(I117036
I1
tp5572
sVconsecut
p5573
(I68383
I3
tp5574
sVpayabl
p5575
(I181865
I2
tp5576
sS'discern'
p5577
(I85936
I1
tp5578
sS'method'
p5579
(I158134
I4
tp5580
sVcontrast
p5581
(I71317
I7
tp5582
sS'darlinghurst'
p5583
(I77875
I1
tp5584
sS'nusaf'
p5585
(I169311
I1
tp5586
sS'full'
p5587
(I110891
I10
tp5588
sVthemselv
p5589
(I241571
I5
tp5590
sVcass
p5591
(I56822
I1
tp5592
sS'5'
p5593
(I16207
I20
tp5594
sVpacif
p5595
(I178693
I1
tp5596
sVvariat
p5597
(I257251
I1
tp5598
sVunmodifi
p5599
(I254352
I1
tp5600
sS'1948'
p5601
(I6148
I2
tp5602
sVtommi
p5603
(I247718
I1
tp5604
sS'sivakolunthu'
p5605
(I224140
I1
tp5606
sS'behaviour'
p5607
(I47934
I5
tp5608
sVmiddl
p5609
(I158314
I1
tp5610
sS'free'
p5611
(I110092
I5
tp5612
sVinher
p5613
(I131513
I6
tp5614
sS'pradip'
p5615
(I188318
I1
tp5616
sVgoodby
p5617
(I114416
I1
tp5618
sS'strong'
p5619
(I231702
I5
tp5620
sVmodifi
p5621
(I160021
I2
tp5622
sS'legend'
p5623
(I146273
I1
tp5624
sVvalu
p5625
(I256962
I12
tp5626
sS'tlr'
p5627
(I246888
I1
tp5628
sVsearch
p5629
(I214247
I3
tp5630
sVmisinterpret
p5631
(I159239
I1
tp5632
sS'ahead'
p5633
(I29675
I3
tp5634
sVcathi
p5635
(I57111
I1
tp5636
sS'420'
p5637
(I15142
I1
tp5638
sS'1841'
p5639
(I5501
I1
tp5640
sVobserv
p5641
(I169670
I13
tp5642
sS'prior'
p5643
(I191021
I7
tp5644
sVamount
p5645
(I33200
I14
tp5646
sS'heroin'
p5647
(I120607
I2
tp5648
sS'2169'
p5649
(I9525
I1
tp5650
sS'pick'
p5651
(I184380
I5
tp5652
sS'action'
p5653
(I25322
I11
tp5654
sS'whereupon'
p5655
(I263893
I1
tp5656
sS'ddo'
p5657
(I78631
I1
tp5658
sS'narrow'
p5659
(I163832
I3
tp5660
sVlink
p5661
(I149035
I2
tp5662
sVdissent
p5663
(I87567
I2
tp5664
sVdiamet
p5665
(I84196
I1
tp5666
sVelsewher
p5667
(I93825
I2
tp5668
sVdepart
p5669
(I82120
I8
tp5670
sS'25pm'
p5671
(I11188
I1
tp5672
sS'jin'
p5673
(I137937
I5
tp5674
sVlawrenc
p5675
(I144791
I1
tp5676
sS'transit'
p5677
(I249262
I1
tp5678
sS'vii'
p5679
(I258808
I2
tp5680
sS'vest'
p5681
(I258163
I1
tp5682
sS'young'
p5683
(I271583
I3
tp5684
sS'put'
p5685
(I196773
I13
tp5686
sVunthink
p5687
(I254876
I1
tp5688
sVinappropri
p5689
(I129005
I2
tp5690
sVfamili
p5691
(I103667
I5
tp5692
sVdemis
p5693
(I81801
I1
tp5694
sS'viz'
p5695
(I259235
I2
tp5696
sS'ameer'
p5697
(I32858
I1
tp5698
sS'establish'
p5699
(I97272
I13
tp5700
sVefend
p5701
(I92861
I1
tp5702
sVselect
p5703
(I215918
I1
tp5704
sS'kan'
p5705
(I140504
I2
tp5706
sVaggress
p5707
(I29138
I1
tp5708
sS'856'
p5709
(I20117
I1
tp5710
sS'eye'
p5711
(I102046
I4
tp5712
sVproceed
p5713
(I191938
I16
tp5714
sVdistinct
p5715
(I87608
I8
tp5716
sVinjuri
p5717
(I131800
I6
tp5718
sVregist
p5719
(I203137
I5
tp5720
sS'two'
p5721
(I251394
I23
tp5722
sVcoverag
p5723
(I75325
I3
tp5724
sVunstow
p5725
(I254778
I1
tp5726
sS'mui'
p5727
(I162294
I2
tp5728
sVmorn
p5729
(I161257
I6
tp5730
sVbash
p5731
(I45490
I1
tp5732
sVoffshor
p5733
(I172100
I1
tp5734
sS'6'
p5735
(I17734
I20
tp5736
sS'taken'
p5737
(I237025
I21
tp5738
sS'hwee'
p5739
(I125025
I1
tp5740
sS'1100cc'
p5741
(I2684
I1
tp5742
sVkick
p5743
(I141408
I1
tp5744
sVobstacl
p5745
(I169846
I1
tp5746
sVassessor
p5747
(I41258
I1
tp5748
sS'minor'
p5749
(I158979
I2
tp5750
sS'more'
p5751
(I160902
I21
tp5752
sVflat
p5753
(I107181
I7
tp5754
sVflaw
p5755
(I107277
I2
tp5756
sVdiamond
p5757
(I84210
I2
tp5758
sS'door'
p5759
(I89312
I5
tp5760
sVgovindasami
p5761
(I114635
I1
tp5762
sS'tobacco'
p5763
(I247297
I1
tp5764
sS'79mg'
p5765
(I19620
I1
tp5766
sVhundr
p5767
(I124832
I2
tp5768
sVapologet
p5769
(I35887
I1
tp5770
sVital
p5771
(I136851
I2
tp5772
sS'ulaganathan'
p5773
(I251895
I1
tp5774
sVflag
p5775
(I107140
I1
tp5776
sVstick
p5777
(I230289
I3
tp5778
sVbroke
p5779
(I52158
I1
tp5780
sVsens
p5781
(I216316
I9
tp5782
sS'known'
p5783
(I142331
I14
tp5784
sVcompani
p5785
(I65356
I9
tp5786
sS'246639'
p5787
(I10805
I1
tp5788
sS'glad'
p5789
(I113632
I1
tp5790
sS'mellor'
p5791
(I157097
I1
tp5792
sVensu
p5793
(I95546
I2
tp5794
sS'none'
p5795
(I166828
I7
tp5796
sVcounterclaim
p5797
(I74494
I1
tp5798
sVramanl
p5799
(I198942
I1
tp5800
sS'hour'
p5801
(I123737
I5
tp5802
sVhous
p5803
(I123820
I10
tp5804
sVphillip
p5805
(I184147
I1
tp5806
sS'der'
p5807
(I82750
I1
tp5808
sVoutlin
p5809
(I177176
I1
tp5810
sVhistori
p5811
(I122566
I2
tp5812
sVremain
p5813
(I204817
I15
tp5814
sS'paragraph'
p5815
(I179539
I9
tp5816
sS'nine'
p5817
(I166247
I4
tp5818
sVelectron
p5819
(I93621
I1
tp5820
sVden
p5821
(I81884
I3
tp5822
sS'v'
p5823
(I256475
I25
tp5824
sVabandon
p5825
(I21688
I1
tp5826
sVwarehous
p5827
(I260532
I2
tp5828
sVabalon
p5829
(I21673
I1
tp5830
sVextrins
p5831
(I102005
I2
tp5832
sS'dee'
p5833
(I80212
I1
tp5834
sS'03'
p5835
(I889
I5
tp5836
sS'distripark'
p5837
(I88117
I1
tp5838
sS'shark'
p5839
(I219655
I2
tp5840
sVomit
p5841
(I172348
I3
tp5842
sS'scam'
p5843
(I213570
I1
tp5844
sVgrievanc
p5845
(I115116
I2
tp5846
sVgeneralibu
p5847
(I112557
I1
tp5848
sVchalleng
p5849
(I58193
I7
tp5850
sVregistr
p5851
(I203207
I6
tp5852
sVshare
p5853
(I219556
I5
tp5854
sS'accept'
p5855
(I23110
I17
tp5856
sS'wallet'
p5857
(I260339
I1
tp5858
sVbadli
p5859
(I44624
I1
tp5860
sS'minimum'
p5861
(I158899
I3
tp5862
sVattain
p5863
(I42368
I1
tp5864
sS'sundararaj'
p5865
(I234909
I1
tp5866
sVphrase
p5867
(I184243
I5
tp5868
sVdress
p5869
(I90330
I3
tp5870
sS'inspector'
p5871
(I132445
I3
tp5872
sVapplianc
p5873
(I37247
I1
tp5874
sS'huge'
p5875
(I124777
I1
tp5876
sVcours
p5877
(I74646
I16
tp5878
sS'court'
p5879
(I74865
I25
tp5880
sVuntru
p5881
(I255055
I3
tp5882
sVsecur
p5883
(I214983
I7
tp5884
sS'rather'
p5885
(I199287
I8
tp5886
sVanoth
p5887
(I34970
I20
tp5888
sVanxiou
p5889
(I35504
I1
tp5890
sVenviron
p5891
(I96270
I1
tp5892
sVcommonli
p5893
(I65259
I1
tp5894
sS'foreseen'
p5895
(I108668
I1
tp5896
sVdivis
p5897
(I88254
I7
tp5898
sVstitch
p5899
(I230602
I1
tp5900
sVreject
p5901
(I203618
I10
tp5902
sVoccur
p5903
(I170461
I9
tp5904
sVsimpl
p5905
(I222615
I8
tp5906
sS'insp'
p5907
(I132390
I1
tp5908
sS'barret'
p5909
(I45258
I1
tp5910
sVplant
p5911
(I185331
I3
tp5912
sS'ft'
p5913
(I110836
I1
tp5914
sS'w'
p5915
(I259662
I1
tp5916
sVfaculti
p5917
(I102908
I1
tp5918
sS'cheaper'
p5919
(I59151
I1
tp5920
sS'shanmugam'
p5921
(I219542
I1
tp5922
sVreclassifi
p5923
(I201427
I1
tp5924
sS'sneak'
p5925
(I225074
I1
tp5926
sS'glinski'
p5927
(I113687
I1
tp5928
sVreflect
p5929
(I202424
I6
tp5930
sS'fa'
p5931
(I102158
I1
tp5932
sS'ambassador'
p5933
(I32803
I1
tp5934
sS'blood'
p5935
(I50276
I2
tp5936
sVdevelop
p5937
(I84002
I4
tp5938
sS'fj'
p5939
(I107113
I2
tp5940
sVassoci
p5941
(I41548
I7
tp5942
sS'9897'
p5943
(I20953
I1
tp5944
sS'a'
p5945
(I21091
I25
tp5946
sVcantones
p5947
(I55241
I1
tp5948
sVcircumst
p5949
(I60745
I21
tp5950
sS'short'
p5951
(I220324
I11
tp5952
sS'orchard'
p5953
(I175217
I2
tp5954
sS'susan'
p5955
(I236001
I2
tp5956
sS'onto'
p5957
(I173776
I6
tp5958
sS'banka'
p5959
(I45065
I1
tp5960
sVwobbl
p5961
(I268357
I1
tp5962
sVcombin
p5963
(I64226
I3
tp5964
sVambigu
p5965
(I32817
I1
tp5966
sVcaus
p5967
(I57181
I16
tp5968
sVripost
p5969
(I209754
I1
tp5970
sVoccup
p5971
(I170447
I1
tp5972
sS'insofar'
p5973
(I132350
I3
tp5974
sVgeorg
p5975
(I112667
I1
tp5976
sS'mortem'
p5977
(I161353
I2
tp5978
sS'davey'
p5979
(I78273
I1
tp5980
sVmedic
p5981
(I156958
I2
tp5982
sS'help'
p5983
(I119839
I5
tp5984
sS'leigh'
p5985
(I146439
I1
tp5986
sVsympathi
p5987
(I236431
I1
tp5988
sS'sook'
p5989
(I226751
I1
tp5990
sVreform
p5991
(I202520
I2
tp5992
sS'jeyaletchumi'
p5993
(I137909
I1
tp5994
sS'soon'
p5995
(I226765
I9
tp5996
sVtrade
p5997
(I248827
I5
tp5998
sS'held'
p5999
(I119587
I18
tp6000
sS'paper'
p6001
(I179330
I4
tp6002
sS'through'
p6003
(I245717
I14
tp6004
sS'supra'
p6005
(I235530
I4
tp6006
sVferri
p6007
(I105103
I1
tp6008
sVhierarchi
p6009
(I121185
I1
tp6010
sS'pretext'
p6011
(I190034
I2
tp6012
sVperhap
p6013
(I182883
I1
tp6014
sVsuffer
p6015
(I233989
I4
tp6016
sS'24'
p6017
(I10262
I14
tp6018
sS'25'
p6019
(I10916
I12
tp6020
sS'26'
p6021
(I11202
I11
tp6022
sS'27'
p6023
(I11574
I11
tp6024
sS'20'
p6025
(I8949
I17
tp6026
sS'21'
p6027
(I9320
I12
tp6028
sS'22'
p6029
(I9581
I15
tp6030
sS'23'
p6031
(I9949
I15
tp6032
sS'forthwith'
p6033
(I109056
I2
tp6034
sVunwork
p6035
(I255165
I1
tp6036
sS'sale'
p6037
(I211991
I8
tp6038
sS'28'
p6039
(I11866
I9
tp6040
sS'29'
p6041
(I12046
I11
tp6042
sVwipe
p6043
(I266854
I2
tp6044
sS'late'
p6045
(I143945
I3
tp6046
sVresort
p6047
(I207027
I2
tp6048
sVpend
p6049
(I182413
I4
tp6050
sVexchang
p6051
(I99759
I4
tp6052
sS'stephen'
p6053
(I230260
I1
tp6054
sS'penn'
p6055
(I182538
I1
tp6056
sVsloppi
p6057
(I224580
I1
tp6058
sS'might'
p6059
(I158383
I13
tp6060
sValter
p6061
(I32172
I2
tp6062
sVpeni
p6063
(I182510
I1
tp6064
sS'phone'
p6065
(I184161
I1
tp6066
sVforbear
p6067
(I108408
I1
tp6068
sVgood
p6069
(I114252
I12
tp6070
sVreturn
p6071
(I208554
I16
tp6072
sS'fook'
p6073
(I107988
I1
tp6074
sS'food'
p6075
(I107948
I3
tp6076
sVsentenc
p6077
(I216578
I19
tp6078
sVpollut
p6079
(I186763
I1
tp6080
sVye
p6081
(I270398
I2
tp6082
sS'yg'
p6083
(I270974
I1
tp6084
sS'yf'
p6085
(I270960
I1
tp6086
sVconsign
p6087
(I69155
I1
tp6088
sS'framework'
p6089
(I109997
I1
tp6090
sS'246648'
p6091
(I10833
I1
tp6092
sVsomebodi
p6093
(I226078
I3
tp6094
sS'rank'
p6095
(I199122
I3
tp6096
sVrecompens
p6097
(I201620
I1
tp6098
sVfoot
p6099
(I108002
I2
tp6100
sS'disobey'
p6101
(I87015
I1
tp6102
sVyr
p6103
(I271708
I1
tp6104
sS'yu'
p6105
(I271722
I2
tp6106
sVcomplain
p6107
(I65744
I9
tp6108
sVwhereabout
p6109
(I263811
I2
tp6110
sS'sowaran'
p6111
(I227261
I1
tp6112
sVdocument
p6113
(I88679
I11
tp6114
sS'nric'
p6115
(I168735
I3
tp6116
sS'subir'
p6117
(I232046
I1
tp6118
sVwash
p6119
(I260806
I1
tp6120
sS'porter'
p6121
(I186900
I1
tp6122
sS'policeman'
p6123
(I186638
I3
tp6124
sVunlik
p6125
(I254268
I4
tp6126
sS'refresh'
p6127
(I202574
I1
tp6128
sS'2d'
p6129
(I12227
I1
tp6130
sVeasili
p6131
(I92479
I3
tp6132
sVachiev
p6133
(I24596
I3
tp6134
sVreactiv
p6135
(I199821
I1
tp6136
sS'chandra'
p6137
(I58443
I2
tp6138
sVhabitu
p6139
(I116464
I1
tp6140
sVcompris
p6141
(I66407
I2
tp6142
sVceas
p6143
(I57581
I4
tp6144
sS'found'
p6145
(I109288
I22
tp6146
sS'malaya'
p6147
(I153212
I2
tp6148
sVbutton
p6149
(I53579
I1
tp6150
sVprecautionari
p6151
(I188468
I1
tp6152
sS'harm'
p6153
(I117792
I1
tp6154
sVinclin
p6155
(I129199
I2
tp6156
sS'england'
p6157
(I95148
I3
tp6158
sVprescrib
p6159
(I189203
I2
tp6160
sS'weight'
p6161
(I261868
I6
tp6162
sVreliabl
p6163
(I204681
I2
tp6164
sS'246672'
p6165
(I10861
I1
tp6166
sS'hard'
p6167
(I117738
I1
tp6168
sS'jeffrey'
p6169
(I137868
I1
tp6170
sVprocedur
p6171
(I191652
I21
tp6172
sVrealli
p6173
(I200391
I5
tp6174
sVheavi
p6175
(I119393
I4
tp6176
sS'177'
p6177
(I5185
I1
tp6178
sVunargu
p6179
(I252183
I1
tp6180
sS'oil'
p6181
(I172170
I1
tp6182
sVconnect
p6183
(I68232
I6
tp6184
sS'176'
p6185
(I5145
I3
tp6186
sS'quantum'
p6187
(I197528
I3
tp6188
sS'khalawan'
p6189
(I141202
I1
tp6190
sVthing
p6191
(I244159
I11
tp6192
sS'event'
p6193
(I97903
I14
tp6194
sVretribut
p6195
(I208540
I1
tp6196
sVcreditor
p6197
(I75931
I1
tp6198
sS'alcohol'
p6199
(I30099
I2
tp6200
sVsuprem
p6201
(I235586
I4
tp6202
sS'p'
p6203
(I178277
I19
tp6204
sS'illicit'
p6205
(I126765
I2
tp6206
sVveerasami
p6207
(I257446
I1
tp6208
sS'robert'
p6209
(I210148
I2
tp6210
sVpublish
p6211
(I195538
I3
tp6212
sVprinc
p6213
(I190736
I1
tp6214
sS'burnfoot'
p6215
(I53073
I1
tp6216
sVsustain
p6217
(I236182
I4
tp6218
sS'hill'
p6219
(I121789
I1
tp6220
sS'7'
p6221
(I18792
I18
tp6222
sVprint
p6223
(I190980
I2
tp6224
sVtruste
p6225
(I250932
I2
tp6226
sVoccurr
p6227
(I170585
I3
tp6228
sVtestifi
p6229
(I239444
I10
tp6230
sVdifficulti
p6231
(I85065
I8
tp6232
sVqualifi
p6233
(I197378
I4
tp6234
sVconfidenti
p6235
(I67843
I1
tp6236
sVstrain
p6237
(I231167
I1
tp6238
sS'belief'
p6239
(I48098
I3
tp6240
sVinterposit
p6241
(I134178
I1
tp6242
sS'sbu'
p6243
(I213459
I1
tp6244
sVankl
p6245
(I34793
I1
tp6246
sS'675'
p6247
(I18544
I1
tp6248
sS'trite'
p6249
(I250575
I2
tp6250
sS'0617'
p6251
(I1139
I1
tp6252
sVdiffer
p6253
(I84738
I17
tp6254
sVoili
p6255
(I172185
I1
tp6256
sS'spenser'
p6257
(I227929
I2
tp6258
sVsuperstor
p6259
(I235006
I1
tp6260
sVreason
p6261
(I200530
I24
tp6262
sVbase
p6263
(I45299
I13
tp6264
sVbeliev
p6265
(I48139
I13
tp6266
sS'dire'
p6267
(I85351
I3
tp6268
sVask
p6269
(I40584
I15
tp6270
sS'teach'
p6271
(I238079
I1
tp6272
sS'vivian'
p6273
(I259221
I1
tp6274
sVpreclud
p6275
(I188618
I2
tp6276
sVbasi
p6277
(I45504
I10
tp6278
sS'thrown'
p6279
(I246006
I2
tp6280
sVdirector
p6281
(I85663
I5
tp6282
sVmoneylend
p6283
(I160448
I1
tp6284
sS'threefold'
p6285
(I245676
I1
tp6286
sVbrown
p6287
(I52504
I3
tp6288
sS'wlr'
p6289
(I268302
I2
tp6290
sVwildli
p6291
(I266345
I1
tp6292
sVsuccess
p6293
(I233476
I5
tp6294
sVstruggl
p6295
(I231839
I2
tp6296
sS'lieu'
p6297
(I148044
I1
tp6298
sS'caption'
p6299
(I55709
I2
tp6300
sS'american'
p6301
(I33037
I2
tp6302
sS'fruit'
p6303
(I110794
I1
tp6304
sVperman
p6305
(I183106
I1
tp6306
sVthreat
p6307
(I245286
I5
tp6308
sVkune
p6309
(I142812
I1
tp6310
sVillustri
p6311
(I126848
I1
tp6312
sVlifetim
p6313
(I148155
I2
tp6314
sVhabit
p6315
(I116450
I1
tp6316
sVassign
p6317
(I41314
I2
tp6318
sVmoorthi
p6319
(I160834
I1
tp6320
sS'muthu'
p6321
(I162781
I1
tp6322
sVintimid
p6323
(I134510
I1
tp6324
sVmajor
p6325
(I152831
I3
tp6326
sS'05am'
p6327
(I1111
I1
tp6328
sVnotifi
p6329
(I168242
I1
tp6330
sVobviou
p6331
(I170065
I7
tp6332
sS'4328'
p6333
(I15295
I1
tp6334
sS'feel'
p6335
(I104761
I3
tp6336
sS'guan'
p6337
(I115561
I2
tp6338
sS'number'
p6339
(I168930
I25
tp6340
sVaspers
p6341
(I40914
I1
tp6342
sVnarcooffic
p6343
(I163761
I1
tp6344
sS'river'
p6345
(I209880
I1
tp6346
sS'done'
p6347
(I89119
I14
tp6348
sS'least'
p6349
(I145327
I6
tp6350
sS'blank'
p6351
(I50041
I1
tp6352
sS'600'
p6353
(I18077
I3
tp6354
sS'chicken'
p6355
(I59700
I1
tp6356
sVwager
p6357
(I260064
I1
tp6358
sVmiss
p6359
(I159295
I6
tp6360
sVdefi
p6361
(I80887
I1
tp6362
sVfanci
p6363
(I103750
I2
tp6364
sS'passer'
p6365
(I181409
I1
tp6366
sS'koh'
p6367
(I142525
I3
tp6368
sS'kok'
p6369
(I142565
I3
tp6370
sVnulliti
p6371
(I168859
I1
tp6372
sS'subramania'
p6373
(I232747
I1
tp6374
sS'5th'
p6375
(I17720
I1
tp6376
sS'bay'
p6377
(I45725
I1
tp6378
sS'180'
p6379
(I5417
I2
tp6380
sVconstruct
p6381
(I69649
I8
tp6382
sS'182'
p6383
(I5459
I1
tp6384
sVpaint
p6385
(I179121
I1
tp6386
sVstori
p6387
(I231057
I5
tp6388
sS'station'
p6389
(I229618
I7
tp6390
sS'23pm'
p6391
(I10248
I1
tp6392
sVsmile
p6393
(I224938
I1
tp6394
sVstatement
p6395
(I229361
I18
tp6396
sS'jee'
p6397
(I137841
I2
tp6398
sVrevel
p6399
(I208885
I1
tp6400
sVtwenti
p6401
(I251340
I2
tp6402
sS'188'
p6403
(I5599
I2
tp6404
sS'189'
p6405
(I5668
I3
tp6406
sVdisagr
p6407
(I85746
I1
tp6408
sS'store'
p6409
(I230934
I5
tp6410
sVnecklac
p6411
(I164676
I1
tp6412
sS'conduit'
p6413
(I67692
I1
tp6414
sS'6015g'
p6415
(I18131
I1
tp6416
sS'6am'
p6417
(I18723
I1
tp6418
sS'option'
p6419
(I174776
I3
tp6420
sS'relationship'
p6421
(I204046
I5
tp6422
sS'behind'
p6423
(I48003
I7
tp6424
sS'bowen'
p6425
(I51306
I1
tp6426
sS'sweet'
p6427
(I236321
I1
tp6428
sS'chwee'
p6429
(I60593
I1
tp6430
sS'park'
p6431
(I179787
I6
tp6432
sS'pari'
p6433
(I179747
I3
tp6434
sS'l99'
p6435
(I142949
I1
tp6436
sS'widdifield'
p6437
(I266124
I1
tp6438
sVchair
p6439
(I58165
I1
tp6440
sS'part'
p6441
(I179965
I22
tp6442
sVinequ
p6443
(I130890
I1
tp6444
sS'consult'
p6445
(I69757
I4
tp6446
sS'1911'
p6447
(I5981
I1
tp6448
sS'yusoof'
p6449
(I271777
I1
tp6450
sS'sheer'
p6451
(I220005
I1
tp6452
sS'1915'
p6453
(I5995
I1
tp6454
sS'grace'
p6455
(I114663
I1
tp6456
sS'albeit'
p6457
(I30072
I2
tp6458
sS'kind'
p6459
(I141517
I4
tp6460
sS'b'
p6461
(I44021
I16
tp6462
sVcontrari
p6463
(I71164
I11
tp6464
sS'mian'
p6465
(I158232
I1
tp6466
sVunload
p6467
(I254324
I1
tp6468
sS'dtc'
p6469
(I90965
I1
tp6470
sS'860'
p6471
(I20159
I1
tp6472
sVremov
p6473
(I205309
I6
tp6474
sS'862'
p6475
(I20173
I1
tp6476
sS'pc'
p6477
(I182031
I3
tp6478
sVknive
p6479
(I141901
I1
tp6480
sVriski
p6481
(I209852
I1
tp6482
sS'thereon'
p6483
(I242980
I1
tp6484
sVnevertheless
p6485
(I165475
I5
tp6486
sVgroceri
p6487
(I115185
I1
tp6488
sS'ratna'
p6489
(I199449
I1
tp6490
sVredress
p6491
(I202007
I1
tp6492
sVevinc
p6493
(I98809
I3
tp6494
sVvocat
p6495
(I259262
I1
tp6496
sVprovision
p6497
(I194987
I1
tp6498
sVconsumpt
p6499
(I69840
I3
tp6500
sVtoward
p6501
(I248624
I8
tp6502
sVweapon
p6503
(I261484
I3
tp6504
sS'zainal'
p6505
(I271805
I1
tp6506
sVadhes
p6507
(I26475
I1
tp6508
sS'indonesia'
p6509
(I130724
I2
tp6510
sS'sce'
p6511
(I213667
I1
tp6512
sS'bad'
p6513
(I44570
I3
tp6514
sS'7a'
p6515
(I19634
I1
tp6516
sVdeleg
p6517
(I81227
I1
tp6518
sVstrengthen
p6519
(I231440
I1
tp6520
sS'mah'
p6521
(I152474
I1
tp6522
sS'bhd'
p6523
(I49519
I4
tp6524
sS'affray'
p6525
(I27921
I1
tp6526
sS'graffiti'
p6527
(I114677
I1
tp6528
sVexpir
p6529
(I100847
I5
tp6530
sS'tabulabel'
p6531
(I236635
I1
tp6532
sS'unpaid'
p6533
(I254449
I2
tp6534
sS'064'
p6535
(I1153
I1
tp6536
sS'sell'
p6537
(I215960
I6
tp6538
sVlie
p6539
(I147947
I5
tp6540
sS'wilson'
p6541
(I266705
I2
tp6542
sVtranch
p6543
(I249122
I1
tp6544
sS'para'
p6545
(I179400
I9
tp6546
sVequival
p6547
(I96560
I5
tp6548
sVancillari
p6549
(I33919
I3
tp6550
sS'lim'
p6551
(I148575
I11
tp6552
sS'lin'
p6553
(I148883
I2
tp6554
sVcave
p6555
(I57512
I2
tp6556
sVphysiqu
p6557
(I184366
I1
tp6558
sVbackfir
p6559
(I44461
I1
tp6560
sVpresumpt
p6561
(I189895
I9
tp6562
sS'also'
p6563
(I31841
I24
tp6564
sS'labour'
p6565
(I143008
I1
tp6566
sVbuild
p6567
(I52712
I4
tp6568
sS'karuppan'
p6569
(I140601
I1
tp6570
sS'353'
p6571
(I13719
I2
tp6572
sVcontemporan
p6573
(I70218
I1
tp6574
sS'foreman'
p6575
(I108654
I1
tp6576
sVplay
p6577
(I185523
I9
tp6578
sS'hotel'
p6579
(I123695
I2
tp6580
sVdisparag
p6581
(I87043
I1
tp6582
sVdistribut
p6583
(I87867
I3
tp6584
sS'injuria'
p6585
(I131882
I1
tp6586
sVunsur
p6587
(I254834
I1
tp6588
sVpreviou
p6589
(I190253
I10
tp6590
sVreach
p6591
(I199657
I10
tp6592
sVmixtur
p6593
(I159652
I2
tp6594
sS'kam'
p6595
(I140490
I1
tp6596
sVronni
p6597
(I210436
I1
tp6598
sS'77'
p6599
(I19551
I1
tp6600
sS'sghc'
p6601
(I218981
I20
tp6602
sS'75'
p6603
(I19483
I3
tp6604
sVlarg
p6605
(I143658
I7
tp6606
sS'73'
p6607
(I19330
I4
tp6608
sVplan
p6609
(I185291
I3
tp6610
sS'kau'
p6611
(I140643
I2
tp6612
sS'70'
p6613
(I19042
I5
tp6614
sVkay
p6615
(I140670
I1
tp6616
sVcharg
p6617
(I58693
I23
tp6618
sVmorri
p6619
(I161339
I1
tp6620
sS'kb'
p6621
(I140684
I2
tp6622
sVguid
p6623
(I115711
I2
tp6624
sS'q3'
p6625
(I197183
I1
tp6626
sS'clear'
p6627
(I62186
I15
tp6628
sS'nan'
p6629
(I163678
I1
tp6630
sS'cover'
p6631
(I75217
I8
tp6632
sS'exh'
p6633
(I100244
I2
tp6634
sS'clementi'
p6635
(I62637
I1
tp6636
sVsalari
p6637
(I211964
I2
tp6638
sS'10am'
p6639
(I2284
I3
tp6640
sS'qbd'
p6641
(I197308
I1
tp6642
sS'ku'
p6643
(I142689
I1
tp6644
sVlordship
p6645
(I150706
I3
tp6646
sS'weigh'
p6647
(I261786
I6
tp6648
sVordinarili
p6649
(I175690
I2
tp6650
sS'50kph'
p6651
(I16730
I1
tp6652
sVcleric
p6653
(I62651
I1
tp6654
sS'q2'
p6655
(I197169
I1
tp6656
sVdetach
p6657
(I83400
I1
tp6658
sS'abdullah'
p6659
(I21855
I1
tp6660
sS'rta'
p6661
(I210701
I1
tp6662
sS'3520'
p6663
(I13705
I1
tp6664
sVjurisdict
p6665
(I139887
I5
tp6666
sS'fong'
p6667
(I107865
I2
tp6668
sS'666'
p6669
(I18434
I2
tp6670
sVaffix
p6671
(I27841
I3
tp6672
sS'663'
p6673
(I18420
I1
tp6674
sS'taller'
p6675
(I237407
I1
tp6676
sVsophist
p6677
(I226903
I1
tp6678
sVpercept
p6679
(I182743
I1
tp6680
sS'session'
p6681
(I217808
I2
tp6682
sVparticularli
p6683
(I180844
I6
tp6684
sS'dw2'
p6685
(I91683
I2
tp6686
sS'1910'
p6687
(I5967
I1
tp6688
sVunderlin
p6689
(I252892
I2
tp6690
sVreput
p6691
(I206464
I1
tp6692
sS'fine'
p6693
(I106157
I13
tp6694
sVfind
p6695
(I105905
I18
tp6696
sS'q5'
p6697
(I197211
I1
tp6698
sS'impact'
p6699
(I127260
I2
tp6700
sS'cell'
p6701
(I57637
I1
tp6702
sS'ambit'
p6703
(I32831
I2
tp6704
sVcoerc
p6705
(I63651
I1
tp6706
sVstaircas
p6707
(I228754
I1
tp6708
sVequiti
p6709
(I96546
I1
tp6710
sS'quek'
p6711
(I197705
I1
tp6712
sS'writer'
p6713
(I269877
I2
tp6714
sVafterward
p6715
(I28351
I4
tp6716
sS'3pm'
p6717
(I14437
I1
tp6718
sVtechnic
p6719
(I238107
I4
tp6720
sS'beat'
p6721
(I46255
I1
tp6722
sS'fellow'
p6723
(I104869
I4
tp6724
sS'dw3'
p6725
(I91710
I2
tp6726
sVfactor
p6727
(I102770
I4
tp6728
sVaccost
p6729
(I24110
I2
tp6730
sS'8'
p6731
(I19648
I17
tp6732
sVstipul
p6733
(I230575
I2
tp6734
sVunhappi
p6735
(I253665
I1
tp6736
sS'checkpoint'
p6737
(I59287
I1
tp6738
sS'hip'
p6739
(I122509
I1
tp6740
sVremedi
p6741
(I205116
I2
tp6742
sS'hit'
p6743
(I122593
I3
tp6744
sS'king'
p6745
(I141573
I2
tp6746
sS'custodian'
p6747
(I77311
I1
tp6748
sVexpress
p6749
(I101359
I12
tp6750
sS'reasonperson'
p6751
(I200863
I1
tp6752
sS'651'
p6753
(I18378
I1
tp6754
sS'somehow'
p6755
(I226118
I1
tp6756
sVsimplist
p6757
(I222819
I1
tp6758
sS'hid'
p6759
(I121144
I1
tp6760
sVchide
p6761
(I59714
I1
tp6762
sS'theft'
p6763
(I240926
I4
tp6764
sS'restrap'
p6765
(I208033
I1
tp6766
sVliabl
p6767
(I147495
I12
tp6768
sS'219'
p6769
(I9567
I1
tp6770
sS'69'
p6771
(I18653
I1
tp6772
sS'him'
p6773
(I121803
I24
tp6774
sS'hin'
p6775
(I122400
I2
tp6776
sVobligatori
p6777
(I169642
I1
tp6778
sVuncomfort
p6779
(I252418
I1
tp6780
sS'lavish'
p6781
(I144450
I1
tp6782
sS'12cm'
p6783
(I3375
I1
tp6784
sS'citibank'
p6785
(I61196
I1
tp6786
sS'146a'
p6787
(I4157
I1
tp6788
sVsingapor
p6789
(I223122
I21
tp6790
sS'common'
p6791
(I65134
I9
tp6792
sVfeloni
p6793
(I104925
I1
tp6794
sS'gotten'
p6795
(I114526
I1
tp6796
sS'x'
p6797
(I270247
I2
tp6798
sS'vincent'
p6799
(I258890
I1
tp6800
sVcri
p6801
(I75972
I4
tp6802
sS'hinder'
p6803
(I122427
I1
tp6804
sS'dta'
p6805
(I90950
I1
tp6806
sS'wrote'
p6807
(I270164
I3
tp6808
sVcertif
p6809
(I58024
I4
tp6810
sVforego
p6811
(I108586
I3
tp6812
sS'set'
p6813
(I217835
I21
tp6814
sS'ganesha'
p6815
(I111951
I1
tp6816
sS'lea'
p6817
(I144954
I2
tp6818
sVoverwhelm
p6819
(I177741
I3
tp6820
sVterenc
p6821
(I238962
I2
tp6822
sS'316'
p6823
(I13126
I1
tp6824
sS'thye'
p6825
(I246292
I2
tp6826
sS'vijakumar'
p6827
(I258862
I1
tp6828
sVrevisionari
p6829
(I209177
I1
tp6830
sS'see'
p6831
(I215078
I19
tp6832
sS'448'
p6833
(I15405
I1
tp6834
sS'bare'
p6835
(I45161
I4
tp6836
sS'are'
p6837
(I38221
I22
tp6838
sVbarg
p6839
(I45217
I2
tp6840
sVtender
p6841
(I238767
I4
tp6842
sS'close'
p6843
(I62833
I14
tp6844
sVdespatch
p6845
(I83180
I1
tp6846
sVunqualifi
p6847
(I254476
I1
tp6848
sS'sek'
p6849
(I215877
I2
tp6850
sVwhatsoev
p6851
(I263082
I2
tp6852
sVanalog
p6853
(I33769
I3
tp6854
sVeman
p6855
(I93852
I2
tp6856
sS'97g'
p6857
(I20898
I1
tp6858
sS'268'
p6859
(I11546
I1
tp6860
sS'glue'
p6861
(I113729
I1
tp6862
sS'learnt'
p6863
(I145272
I1
tp6864
sS'expert'
p6865
(I100820
I2
tp6866
sVerad
p6867
(I96766
I1
tp6868
sVjenkin
p6869
(I137882
I2
tp6870
sVsometh
p6871
(I226256
I9
tp6872
sVleg
p6873
(I146135
I1
tp6874
sVparticip
p6875
(I180611
I3
tp6876
sVdebat
p6877
(I79108
I1
tp6878
sS'pickup'
p6879
(I184449
I1
tp6880
sS'74'
p6881
(I19443
I3
tp6882
sS'plywood'
p6883
(I186005
I1
tp6884
sVcaretak
p6885
(I56124
I1
tp6886
sS'guardian'
p6887
(I115643
I1
tp6888
sVextort
p6889
(I101852
I1
tp6890
sVsubscript
p6891
(I232789
I1
tp6892
sVexperi
p6893
(I100753
I3
tp6894
sVgener
p6895
(I112404
I11
tp6896
sVdismemb
p6897
(I86767
I1
tp6898
sS'meal'
p6899
(I156422
I1
tp6900
sValtern
p6901
(I32200
I10
tp6902
sVsignatur
p6903
(I221926
I2
tp6904
sVcatalogu
p6905
(I56946
I1
tp6906
sVdriscol
p6907
(I90479
I1
tp6908
sVappreci
p6909
(I37579
I3
tp6910
sVnumer
p6911
(I169271
I3
tp6912
sS'waisuddin'
p6913
(I260119
I1
tp6914
sVinduc
p6915
(I130751
I5
tp6916
sVsole
p6917
(I225674
I4
tp6918
sS'asrea'
p6919
(I40957
I1
tp6920
sVdisallow
p6921
(I85800
I1
tp6922
sVincident
p6923
(I129185
I1
tp6924
sVsucceed
p6925
(I233407
I5
tp6926
sVarrang
p6927
(I39533
I7
tp6928
sS'yishun'
p6929
(I271031
I2
tp6930
sVnervou
p6931
(I165242
I1
tp6932
sS'cheoh'
p6933
(I59466
I1
tp6934
sVburli
p6935
(I53032
I1
tp6936
sVoppress
p6937
(I174735
I2
tp6938
sS'both'
p6939
(I50893
I21
tp6940
sS'c'
p6941
(I54083
I8
tp6942
sS'cryptic'
p6943
(I76898
I1
tp6944
sS'last'
p6945
(I143807
I9
tp6946
sVlicense
p6947
(I147933
I1
tp6948
sS'sino'
p6949
(I223698
I1
tp6950
sVinsinu
p6951
(I132280
I1
tp6952
sS'chinta'
p6953
(I60015
I1
tp6954
sVretent
p6955
(I208431
I2
tp6956
sVwed
p6957
(I261579
I1
tp6958
sValon
p6959
(I31390
I8
tp6960
sS'anor'
p6961
(I34862
I8
tp6962
sS'foreign'
p6963
(I108640
I1
tp6964
sVimpliedli
p6965
(I127564
I1
tp6966
sS'8am'
p6967
(I20295
I1
tp6968
sS'context'
p6969
(I70673
I7
tp6970
sVmotorcycl
p6971
(I161834
I1
tp6972
sVmodif
p6973
(I159981
I3
tp6974
sS'concur'
p6975
(I67296
I2
tp6976
sS'whole'
p6977
(I265577
I12
tp6978
sVassort
p6979
(I41644
I1
tp6980
sVassault
p6981
(I40971
I5
tp6982
sVconcret
p6983
(I67240
I4
tp6984
sS'jit'
p6985
(I138006
I1
tp6986
sVsimpli
p6987
(I222723
I6
tp6988
sVconsolid
p6989
(I69322
I2
tp6990
sS'point'
p6991
(I186129
I20
tp6992
sVschedul
p6993
(I213806
I2
tp6994
sVloan
p6995
(I149652
I2
tp6996
sS'hudson'
p6997
(I124736
I2
tp6998
sVunrealist
p6999
(I254490
I1
tp7000
sVresidu
p7001
(I206932
I2
tp7002
sS'pm'
p7003
(I186019
I1
tp7004
sS'ravi'
p7005
(I199463
I1
tp7006
sVplatform
p7007
(I185468
I1
tp7008
sVsuppli
p7009
(I235101
I4
tp7010
sVaverag
p7011
(I43523
I4
tp7012
sVmistak
p7013
(I159377
I3
tp7014
sS'100ml'
p7015
(I2050
I2
tp7016
sVdeceiv
p7017
(I79319
I3
tp7018
sS'hovercraft'
p7019
(I123986
I1
tp7020
sS'belt'
p7021
(I48631
I1
tp7022
sVturnov
p7023
(I251326
I1
tp7024
sVconfirmatori
p7025
(I68064
I1
tp7026
sVcircumstanti
p7027
(I61031
I1
tp7028
sVunsuccess
p7029
(I254820
I1
tp7030
sS'pt'
p7031
(I195123
I1
tp7032
sS'conveyor'
p7033
(I71971
I1
tp7034
sVperpetr
p7035
(I183229
I1
tp7036
sS'atan'
p7037
(I42217
I1
tp7038
sVdevic
p7039
(I84072
I2
tp7040
sS'due'
p7041
(I91007
I12
tp7042
sVempti
p7043
(I94413
I2
tp7044
sVtownhos
p7045
(I248799
I1
tp7046
sS'garmaz'
p7047
(I112033
I1
tp7048
sS'whom'
p7049
(I265849
I11
tp7050
sS'proprietor'
p7051
(I193608
I3
tp7052
sS'peninsular'
p7053
(I182524
I1
tp7054
sVdamn
p7055
(I77792
I1
tp7056
sVunmeritori
p7057
(I254338
I1
tp7058
sVpe
p7059
(I182071
I1
tp7060
sVmonthli
p7061
(I160736
I2
tp7062
sVthreaten
p7063
(I245355
I5
tp7064
sS'ph'
p7065
(I184091
I1
tp7066
sS'4353'
p7067
(I15309
I1
tp7068
sVengend
p7069
(I95094
I1
tp7070
sS'4'
p7071
(I14478
I18
tp7072
sS'firm'
p7073
(I106403
I3
tp7074
sVresidenti
p7075
(I206918
I1
tp7076
sVadventur
p7077
(I27277
I1
tp7078
sS'modern'
p7079
(I159940
I1
tp7080
sS'flight'
p7081
(I107346
I1
tp7082
sS'01'
p7083
(I738
I7
tp7084
sS'buck'
p7085
(I52697
I1
tp7086
sS'raj'
p7087
(I198790
I1
tp7088
sS'633'
p7089
(I18268
I1
tp7090
sS'jaswant'
p7091
(I137771
I1
tp7092
sS'convert'
p7093
(I71875
I1
tp7094
sVunnecessarili
p7095
(I254422
I2
tp7096
sVdeter
p7097
(I83646
I3
tp7098
sVfund
p7099
(I111168
I2
tp7100
sS'moopan'
p7101
(I160805
I1
tp7102
sVbalesti
p7103
(I44943
I1
tp7104
sS'understand'
p7105
(I252960
I8
tp7106
sS'300m2'
p7107
(I12783
I1
tp7108
sVdemand
p7109
(I81679
I6
tp7110
sVgag
p7111
(I111800
I1
tp7112
sVdeport
p7113
(I82364
I1
tp7114
sVeduc
p7115
(I92820
I2
tp7116
sS'p2'
p7117
(I178569
I2
tp7118
sS'p3'
p7119
(I178597
I2
tp7120
sS'highest'
p7121
(I121584
I3
tp7122
sS'stolen'
p7123
(I230644
I4
tp7124
sS'uncertain'
p7125
(I252363
I2
tp7126
sS'look'
p7127
(I150345
I11
tp7128
sS'p4'
p7129
(I178625
I3
tp7130
sVpedestrian
p7131
(I182196
I1
tp7132
sS'mlj'
p7133
(I159679
I14
tp7134
sVaham
p7135
(I29661
I1
tp7136
sS'straight'
p7137
(I231126
I2
tp7138
sS'bill'
p7139
(I49657
I3
tp7140
sVphraseolog
p7141
(I184312
I1
tp7142
sVdurat
p7143
(I91240
I3
tp7144
sVsare
p7145
(I212599
I1
tp7146
sS'while'
p7147
(I264774
I14
tp7148
sVenact
p7149
(I94480
I5
tp7150
sVabov
p7151
(I22458
I14
tp7152
sS'error'
p7153
(I96850
I6
tp7154
sVconceiv
p7155
(I66586
I3
tp7156
sVpack
p7157
(I178707
I4
tp7158
sVprejudic
p7159
(I188835
I3
tp7160
sS'real'
p7161
(I200184
I7
tp7162
sS'love'
p7163
(I151104
I1
tp7164
sVpound
p7165
(I187796
I2
tp7166
sS'gray'
p7167
(I114937
I1
tp7168
sVandi
p7169
(I34333
I1
tp7170
sVreadi
p7171
(I200101
I4
tp7172
sVcentr
p7173
(I57665
I5
tp7174
sVadulter
p7175
(I27068
I1
tp7176
sS'herein'
p7177
(I120523
I1
tp7178
sS'singaporean'
p7179
(I223411
I3
tp7180
sS'cathay'
p7181
(I57084
I2
tp7182
sVunimpress
p7183
(I253733
I1
tp7184
sS'itself'
p7185
(I137001
I13
tp7186
sVvirtu
p7187
(I258973
I4
tp7188
sVmiscommun
p7189
(I159157
I1
tp7190
sVcharl
p7191
(I59013
I1
tp7192
sS'12am'
p7193
(I3361
I1
tp7194
sS'rib'
p7195
(I209247
I1
tp7196
sVattach
p7197
(I42245
I7
tp7198
sS'chase'
p7199
(I59082
I1
tp7200
sS'funan'
p7201
(I111084
I1
tp7202
sVirrelev
p7203
(I135638
I4
tp7204
sS'shirt'
p7205
(I220143
I4
tp7206
sS'878'
p7207
(I20227
I1
tp7208
sVgrant
p7209
(I114691
I9
tp7210
sVcrowd
p7211
(I76720
I1
tp7212
sVweighti
p7213
(I261950
I1
tp7214
sVbelong
p7215
(I48330
I6
tp7216
sVlenienc
p7217
(I146630
I3
tp7218
sS'wherein'
p7219
(I263865
I1
tp7220
sS'shorter'
p7221
(I220477
I2
tp7222
sVdetain
p7223
(I83551
I3
tp7224
sVlengthi
p7225
(I146616
I1
tp7226
sVpharmaceut
p7227
(I184105
I1
tp7228
sS'corridor'
p7229
(I73409
I1
tp7230
sS'9'
p7231
(I20323
I17
tp7232
sS'shah'
p7233
(I219293
I2
tp7234
sVterrac
p7235
(I239277
I1
tp7236
sVconflict
p7237
(I68107
I2
tp7238
sS'higher'
p7239
(I121515
I5
tp7240
sVimagin
p7241
(I126917
I1
tp7242
sVoptim
p7243
(I174762
I1
tp7244
sS'restraint'
p7245
(I207992
I3
tp7246
sS'banter'
p7247
(I45147
I1
tp7248
sS'island'
p7249
(I136094
I1
tp7250
sVwherea
p7251
(I263771
I3
tp7252
sS'yesterday'
p7253
(I270795
I1
tp7254
sS'specialia'
p7255
(I227548
I1
tp7256
sValert
p7257
(I30126
I2
tp7258
sVcontravent
p7259
(I71452
I1
tp7260
sS'649'
p7261
(I18324
I1
tp7262
sS'moment'
p7263
(I160185
I6
tp7264
sS'000'
p7265
(I542
I12
tp7266
sVtemporari
p7267
(I238559
I1
tp7268
sS'user'
p7269
(I256309
I3
tp7270
sS'648'
p7271
(I18310
I1
tp7272
sS'chor'
p7273
(I60302
I1
tp7274
sVvitiat
p7275
(I259194
I2
tp7276
sS'nagaiah'
p7277
(I163237
I1
tp7278
sS'implement'
p7279
(I127385
I1
tp7280
sS'focal'
p7281
(I107500
I1
tp7282
sS'built'
p7283
(I52768
I1
tp7284
sS'263'
p7285
(I11424
I2
tp7286
sS'lower'
p7287
(I151186
I5
tp7288
sS'task'
p7289
(I237779
I3
tp7290
sVmachineri
p7291
(I151943
I1
tp7292
sVunlaw
p7293
(I254022
I5
tp7294
sVunanim
p7295
(I252169
I1
tp7296
sVentri
p7297
(I96149
I3
tp7298
sVcheek
p7299
(I59328
I1
tp7300
sS'spent'
p7301
(I227956
I4
tp7302
sVgrossli
p7303
(I115213
I1
tp7304
sS'jalan'
p7305
(I137548
I1
tp7306
sS'person'
p7307
(I183297
I22
tp7308
sS'devoid'
p7309
(I84126
I1
tp7310
sS'260'
p7311
(I11356
I1
tp7312
sS'430'
p7313
(I15281
I1
tp7314
sS'withdraw'
p7315
(I267629
I1
tp7316
sS'231'
p7317
(I10166
I1
tp7318
sS'y'
p7319
(I270330
I2
tp7320
sS'267'
p7321
(I11519
I2
tp7322
sVrecant
p7323
(I201016
I1
tp7324
sS'mislaid'
p7325
(I159253
I1
tp7326
sS'latter'
p7327
(I144229
I9
tp7328
sVperceiv
p7329
(I182716
I2
tp7330
sVpropos
p7331
(I193455
I5
tp7332
sVexplan
p7333
(I101083
I11
tp7334
sS'promedico'
p7335
(I192792
I1
tp7336
sVchore
p7337
(I60316
I1
tp7338
sVviolat
p7339
(I258919
I3
tp7340
sVendeavour
p7341
(I94877
I1
tp7342
sS'knot'
p7343
(I141929
I1
tp7344
sVpreposter
p7345
(I189175
I1
tp7346
sS'woodward'
p7347
(I268728
I1
tp7348
sS'272a'
p7349
(I11741
I1
tp7350
sVdishonesti
p7351
(I86712
I1
tp7352
sS'birthday'
p7353
(I49902
I1
tp7354
sVrelianc
p7355
(I204708
I3
tp7356
sS'dialect'
p7357
(I84168
I1
tp7358
sVspuriou
p7359
(I228299
I1
tp7360
sVadjudg
p7361
(I26569
I1
tp7362
sVadminist
p7363
(I26583
I1
tp7364
sVunti
p7365
(I254890
I1
tp7366
sVelect
p7367
(I93565
I4
tp7368
sS'taiwan'
p7369
(I236748
I1
tp7370
sVcouch
p7371
(I73675
I1
tp7372
sS'survivorship'
p7373
(I235987
I1
tp7374
sS'269'
p7375
(I11560
I1
tp7376
sS'unto'
p7377
(I255041
I1
tp7378
sS'timber'
p7379
(I246457
I1
tp7380
sVdepriv
p7381
(I82432
I4
tp7382
sS'lit'
p7383
(I149187
I2
tp7384
sVtigress
p7385
(I246415
I1
tp7386
sS'cut'
p7387
(I77365
I2
tp7388
sValphacel
p7389
(I31676
I1
tp7390
sS'cur'
p7391
(I77049
I5
tp7392
sS'eldon'
p7393
(I93551
I1
tp7394
sS'cup'
p7395
(I77035
I1
tp7396
sS'scenario'
p7397
(I213681
I2
tp7398
sVpersuad
p7399
(I183647
I6
tp7400
sS'neck'
p7401
(I164649
I2
tp7402
sS'overtook'
p7403
(I177713
I1
tp7404
sS'dare'
p7405
(I77847
I1
tp7406
sS'win'
p7407
(I266746
I1
tp7408
sS'sekhon'
p7409
(I215904
I1
tp7410
sVcum
p7411
(I77007
I1
tp7412
sVsubsequ
p7413
(I232872
I17
tp7414
sS'oberoi'
p7415
(I169448
I1
tp7416
sVapproxim
p7417
(I38042
I2
tp7418
sS'bin'
p7419
(I49711
I10
tp7420
sVcomplaint
p7421
(I65871
I6
tp7422
sS'australia'
p7423
(I42972
I2
tp7424
sS'march'
p7425
(I154439
I14
tp7426
sS'bih'
p7427
(I49643
I1
tp7428
sVloss
p7429
(I150800
I5
tp7430
sVimproperli
p7431
(I128353
I1
tp7432
sS'big'
p7433
(I49603
I3
tp7434
sS'chapter'
p7435
(I58611
I1
tp7436
sVinjur
p7437
(I131760
I3
tp7438
sS'judgement'
p7439
(I138967
I1
tp7440
sVthoma
p7441
(I244693
I1
tp7442
sVgrievou
p7443
(I115143
I1
tp7444
sVincumb
p7445
(I129925
I2
tp7446
sVthoroughli
p7447
(I244722
I1
tp7448
sS'ramaiah'
p7449
(I198928
I1
tp7450
sVcharacterist
p7451
(I58679
I1
tp7452
sVformal
p7453
(I108879
I3
tp7454
sVbruis
p7455
(I52558
I3
tp7456
sVknock
p7457
(I141915
I1
tp7458
sVleisur
p7459
(I146453
I1
tp7460
sS'blemish'
p7461
(I50096
I1
tp7462
sS'd'
p7463
(I77462
I6
tp7464
sS'semi'
p7465
(I216083
I1
tp7466
sVapologis
p7467
(I35901
I1
tp7468
sS'confront'
p7469
(I68148
I1
tp7470
sVsignal
p7471
(I221885
I2
tp7472
sS'ab96a'
p7473
(I21645
I1
tp7474
sVresolv
p7475
(I206987
I3
tp7476
sVdramati
p7477
(I90003
I1
tp7478
sS'heart'
p7479
(I119365
I1
tp7480
sVcollect
p7481
(I63856
I9
tp7482
sVprincip
p7483
(I190750
I2
tp7484
sS'sawdust'
p7485
(I213197
I1
tp7486
sVrecalcitr
p7487
(I201002
I1
tp7488
sVcruis
p7489
(I76843
I1
tp7490
sS'nissan'
p7491
(I166331
I1
tp7492
sVdownstair
p7493
(I89853
I2
tp7494
sVencount
p7495
(I94617
I4
tp7496
sS'sketch'
p7497
(I224387
I1
tp7498
sS'versa'
p7499
(I258027
I1
tp7500
sS'often'
p7501
(I172142
I1
tp7502
sS'sue'
p7503
(I233975
I1
tp7504
sVacknowledg
p7505
(I24636
I6
tp7506
sS'horst'
p7507
(I123613
I1
tp7508
sS'creation'
p7509
(I75765
I1
tp7510
sS'some'
p7511
(I225814
I19
tp7512
sS'back'
p7513
(I44257
I13
tp7514
sS'impeach'
p7515
(I127287
I1
tp7516
sS'global'
p7517
(I113701
I1
tp7518
sS'understood'
p7519
(I253068
I5
tp7520
sVunspecifi
p7521
(I254764
I1
tp7522
sVsampl
p7523
(I212423
I3
tp7524
sVnonetheless
p7525
(I166923
I5
tp7526
sS'sight'
p7527
(I221733
I1
tp7528
sS'mirror'
p7529
(I159062
I3
tp7530
sVsurpris
p7531
(I235766
I4
tp7532
sS'pale'
p7533
(I179176
I1
tp7534
sS'983'
p7535
(I20939
I1
tp7536
sVshutter
p7537
(I221439
I1
tp7538
sVscald
p7539
(I213500
I1
tp7540
sS'scale'
p7541
(I213514
I4
tp7542
sS'culprit'
p7543
(I76980
I2
tp7544
sS'1am'
p7545
(I8616
I1
tp7546
sS'though'
p7547
(I244955
I12
tp7548
sS'pawluk'
p7549
(I181685
I1
tp7550
sS'per'
p7551
(I182621
I7
tp7552
sVseller
p7553
(I216043
I3
tp7554
sS'timah'
p7555
(I246443
I1
tp7556
sVsubstitut
p7557
(I233339
I3
tp7558
sS'peh'
p7559
(I182210
I3
tp7560
sVrecognis
p7561
(I201510
I4
tp7562
sS'saad'
p7563
(I211424
I1
tp7564
sVreproduc
p7565
(I206381
I5
tp7566
sVprob
p7567
(I191419
I1
tp7568
sS'35pm'
p7569
(I13802
I2
tp7570
sVmachin
p7571
(I151928
I1
tp7572
sS'be'
p7573
(I45739
I25
tp7574
sS'kah'
p7575
(I140434
I1
tp7576
sVrun
p7577
(I210867
I7
tp7578
sVpenalis
p7579
(I182359
I1
tp7580
sS'300'
p7581
(I12742
I2
tp7582
sS'word'
p7583
(I268742
I18
tp7584
sS'milmo'
p7585
(I158614
I1
tp7586
sS'agreement'
p7587
(I29456
I8
tp7588
sS'306'
p7589
(I12838
I1
tp7590
sS'307'
p7591
(I12852
I2
tp7592
sVcroni
p7593
(I76471
I1
tp7594
sVbu
p7595
(I52626
I4
tp7596
sS'step'
p7597
(I230136
I9
tp7598
sS'tinker'
p7599
(I246819
I1
tp7600
sVsqueez
p7601
(I228340
I2
tp7602
sVmeantim
p7603
(I156767
I1
tp7604
sS'concoct'
p7605
(I67212
I1
tp7606
sVimpos
p7607
(I127781
I13
tp7608
sVmortgag
p7609
(I161380
I2
tp7610
sS'che'
p7611
(I59123
I1
tp7612
sS'dormant'
p7613
(I89381
I1
tp7614
sVfaith
p7615
(I103407
I2
tp7616
sVjealou
p7617
(I137812
I1
tp7618
sVcomposit
p7619
(I66365
I1
tp7620
sS'coffeshop'
p7621
(I63719
I1
tp7622
sS'8pm'
p7623
(I20309
I1
tp7624
sVdeceas
p7625
(I79222
I5
tp7626
sS'saf'
p7627
(I211466
I1
tp7628
sVunsustain
p7629
(I254848
I1
tp7630
sVmateri
p7631
(I155020
I17
tp7632
sS'plaza'
p7633
(I185675
I1
tp7634
sS'stricken'
p7635
(I231508
I1
tp7636
sVdisclosur
p7637
(I86154
I2
tp7638
sVestim
p7639
(I97506
I1
tp7640
sS'nalpon'
p7641
(I163307
I1
tp7642
sVpertin
p7643
(I183799
I2
tp7644
sVcharm
p7645
(I59027
I1
tp7646
sS'ayakanno'
p7647
(I43993
I1
tp7648
sVsoftwar
p7649
(I225576
I1
tp7650
sS'1620089a'
p7651
(I4761
I1
tp7652
sVconciliatori
p7653
(I66899
I1
tp7654
sS'72'
p7655
(I19248
I3
tp7656
sS'pw6'
p7657
(I197072
I1
tp7658
sVfulfil
p7659
(I110877
I1
tp7660
sS'pw4'
p7661
(I197044
I1
tp7662
sVaudac
p7663
(I42834
I1
tp7664
sS'pw2'
p7665
(I196976
I3
tp7666
sS'pw3'
p7667
(I197016
I2
tp7668
sVprimarili
p7669
(I190669
I3
tp7670
sS'pw1'
p7671
(I196949
I2
tp7672
sS'visit'
p7673
(I259083
I6
tp7674
sS'into'
p7675
(I134525
I23
tp7676
sS'within'
p7677
(I267753
I17
tp7678
sVeveryon
p7679
(I98411
I1
tp7680
sS'246475'
p7681
(I10721
I1
tp7682
sVbankruptci
p7683
(I45120
I2
tp7684
sVjimmi
p7685
(I137923
I1
tp7686
sVuncontrovert
p7687
(I252459
I1
tp7688
sS'repaid'
p7689
(I205653
I1
tp7690
sVensur
p7691
(I95573
I7
tp7692
sS'459818'
p7693
(I15642
I1
tp7694
sS'cho'
p7695
(I60056
I1
tp7696
sS'didn'
p7697
(I84670
I2
tp7698
sS'reduan'
p7699
(I202021
I1
tp7700
sS'nsw'
p7701
(I168789
I2
tp7702
sS'beneath'
p7703
(I48659
I1
tp7704
sVthirdli
p7705
(I244639
I3
tp7706
sS'4060'
p7707
(I14906
I1
tp7708
sS'ontario'
p7709
(I173762
I1
tp7710
sVinstitut
p7711
(I132854
I2
tp7712
sVenabl
p7713
(I94440
I3
tp7714
sS'question'
p7715
(I197760
I21
tp7716
sVcolumn
p7717
(I64158
I1
tp7718
sVsubmit
p7719
(I232448
I15
tp7720
sVcustom
p7721
(I77325
I3
tp7722
sVinclud
p7723
(I129226
I16
tp7724
sS'suit'
p7725
(I234424
I9
tp7726
sVforward
p7727
(I109192
I5
tp7728
sVprey
p7729
(I190446
I1
tp7730
sS'errant'
p7731
(I96822
I1
tp7732
sS'etc'
p7733
(I97520
I1
tp7734
sS'sex'
p7735
(I218503
I2
tp7736
sVproperli
p7737
(I193202
I5
tp7738
sVheedless
p7739
(I119559
I1
tp7740
sVrepeatedli
p7741
(I205817
I1
tp7742
sS'boyd'
p7743
(I51404
I1
tp7744
sS'great'
p7745
(I114951
I5
tp7746
sS'selim'
p7747
(I215946
I1
tp7748
sS'wno'
p7749
(I268343
I1
tp7750
sVsacr
p7751
(I211438
I1
tp7752
sS'yg1496m'
p7753
(I270988
I1
tp7754
sVcloth
p7755
(I63053
I5
tp7756
sS'willmer'
p7757
(I266691
I1
tp7758
sVexcus
p7759
(I99927
I1
tp7760
sS'game'
p7761
(I111883
I2
tp7762
sVtranslat
p7763
(I249276
I3
tp7764
sS'p11'
p7765
(I178555
I1
tp7766
sS'scope'
p7767
(I213931
I4
tp7768
sVduli
p7769
(I91184
I2
tp7770
sS'sdn'
p7771
(I214150
I1
tp7772
sVmitig
p7773
(I159568
I5
tp7774
sS'556'
p7775
(I17347
I1
tp7776
sS'australian'
p7777
(I42999
I2
tp7778
sS'623'
p7779
(I18214
I1
tp7780
sS'cvandasseau'
p7781
(I77392
I1
tp7782
sS'470'
p7783
(I15848
I2
tp7784
sS'xi'
p7785
(I270302
I1
tp7786
sVconsist
p7787
(I69169
I11
tp7788
sS'cid'
p7789
(I60648
I2
tp7790
sVinterlocutori
p7791
(I134013
I1
tp7792
sVupdat
p7793
(I255468
I1
tp7794
sS'up'
p7795
(I255193
I20
tp7796
sS'us'
p7797
(I255869
I8
tp7798
sVintim
p7799
(I134469
I2
tp7800
sS'slander'
p7801
(I224455
I1
tp7802
sS'vsc'
p7803
(I259578
I1
tp7804
sS'today'
p7805
(I247311
I4
tp7806
sS'uk'
p7807
(I251868
I2
tp7808
sVhighlight
p7809
(I121733
I4
tp7810
sS'z'
p7811
(I271791
I1
tp7812
sS'similar'
p7813
(I222287
I13
tp7814
sS'alarm'
p7815
(I30032
I3
tp7816
sVmalic
p7817
(I153475
I2
tp7818
sVbell
p7819
(I48316
I1
tp7820
sVenlarg
p7821
(I95366
I1
tp7822
sS'supervisor'
p7823
(I235061
I3
tp7824
sS'ab47'
p7825
(I21589
I1
tp7826
sVintestaci
p7827
(I134455
I1
tp7828
sS'140'
p7829
(I4046
I1
tp7830
sS'm'
p7831
(I151711
I3
tp7832
sS'chai'
p7833
(I58123
I2
tp7834
sS'chan'
p7835
(I58304
I5
tp7836
sS'possessor'
p7837
(I187455
I1
tp7838
sVrepres
p7839
(I206259
I7
tp7840
sS'parliament'
p7841
(I179897
I3
tp7842
sS'curb'
p7843
(I77132
I1
tp7844
sVdestruct
p7845
(I83386
I1
tp7846
sVchat
p7847
(I59096
I2
tp7848
sVguarante
p7849
(I115588
I1
tp7850
sVaggrav
p7851
(I29097
I2
tp7852
sVdeterg
p7853
(I83686
I1
tp7854
sS'1896'
p7855
(I5736
I2
tp7856
sVhospit
p7857
(I123627
I3
tp7858
sVprevail
p7859
(I190061
I3
tp7860
sS'1891'
p7861
(I5708
I1
tp7862
sVcontractu
p7863
(I71015
I2
tp7864
sS'958'
p7865
(I20747
I1
tp7866
sS'materia'
p7867
(I155252
I3
tp7868
sS'6th'
p7869
(I18778
I1
tp7870
sVmcintyr
p7871
(I156158
I1
tp7872
sVpronounc
p7873
(I192917
I5
tp7874
sVtitl
p7875
(I246833
I3
tp7876
sS'water'
p7877
(I260904
I2
tp7878
sS'invalid'
p7879
(I134980
I2
tp7880
sS'nam'
p7881
(I163321
I1
tp7882
sVquodl
p7883
(I198211
I1
tp7884
sVsubsect
p7885
(I232803
I5
tp7886
sVcircl
p7887
(I60689
I1
tp7888
sVconsequenti
p7889
(I68657
I1
tp7890
sS'tucker'
p7891
(I251122
I1
tp7892
sS'slick'
p7893
(I224524
I1
tp7894
sS'draw'
p7895
(I90017
I13
tp7896
sS'leng'
p7897
(I146507
I2
tp7898
sVclean
p7899
(I62159
I2
tp7900
sVutterli
p7901
(I256461
I1
tp7902
sS'lend'
p7903
(I146467
I3
tp7904
sVexce
p7905
(I99399
I1
tp7906
sVresign
p7907
(I206959
I1
tp7908
sS'william'
p7909
(I266623
I3
tp7910
sVdrag
p7911
(I89962
I2
tp7912
sS'cater'
p7913
(I57057
I2
tp7914
sS'859'
p7915
(I20131
I1
tp7916
sS'lent'
p7917
(I146684
I2
tp7918
sS'hair'
p7919
(I116871
I1
tp7920
sVenhanc
p7921
(I95312
I3
tp7922
sVdesert
p7923
(I83041
I2
tp7924
sVfeder
p7925
(I104648
I4
tp7926
sS'ago'
p7927
(I29166
I4
tp7928
sS'lane'
p7929
(I143481
I3
tp7930
sS'land'
p7931
(I143385
I7
tp7932
sS'e'
p7933
(I91792
I7
tp7934
sVtrail
p7935
(I249065
I1
tp7936
sVinaccuraci
p7937
(I128853
I2
tp7938
sS'reiner'
p7939
(I203523
I1
tp7940
sS'age'
p7941
(I28958
I3
tp7942
sS'ab74'
p7943
(I21631
I1
tp7944
sVremit
p7945
(I205281
I1
tp7946
sVscream
p7947
(I214028
I3
tp7948
sS'dr'
p7949
(I89908
I1
tp7950
sS'marithamuthu'
p7951
(I154662
I1
tp7952
sS'appendix'
p7953
(I37012
I1
tp7954
sS'kheng'
p7955
(I141243
I3
tp7956
sS'roy'
p7957
(I210645
I1
tp7958
sS'bribe'
p7959
(I51732
I1
tp7960
sS'fresh'
p7961
(I110230
I1
tp7962
sS'nasi'
p7963
(I163886
I1
tp7964
sS'95e'
p7965
(I20761
I1
tp7966
sVcharacteris
p7967
(I58665
I1
tp7968
sVjupit
p7969
(I139820
I2
tp7970
sS'advent'
p7971
(I27263
I1
tp7972
sS'code'
p7973
(I63430
I15
tp7974
sVunhelp
p7975
(I253679
I1
tp7976
sVedg
p7977
(I92792
I1
tp7978
sVqueri
p7979
(I197733
I2
tp7980
sVmerced
p7981
(I157514
I1
tp7982
sS'businessmen'
p7983
(I53242
I1
tp7984
sS'median'
p7985
(I156930
I1
tp7986
sVkumarasami
p7987
(I142798
I1
tp7988
sVpolythen
p7989
(I186778
I1
tp7990
sS'gang'
p7991
(I111965
I2
tp7992
sS'go'
p7993
(I113743
I16
tp7994
sVretail
p7995
(I208361
I1
tp7996
sS'gj'
p7997
(I113618
I1
tp7998
sVtoni
p7999
(I247773
I1
tp8000
sVissuer
p8001
(I136476
I1
tp8002
sS'pervert'
p8003
(I183853
I1
tp8004
sVprivat
p8005
(I191252
I5
tp8006
sVprocur
p8007
(I192284
I2
tp8008
sS'gold'
p8009
(I114103
I3
tp8010
sVconcomitantli
p8011
(I67226
I1
tp8012
sVsensit
p8013
(I216494
I2
tp8014
sS'239'
p8015
(I10221
I2
tp8016
sVstave
p8017
(I229958
I1
tp8018
sS'seng'
p8019
(I216180
I6
tp8020
sS'send'
p8021
(I216124
I4
tp8022
sS'nose'
p8023
(I167307
I2
tp8024
sS'granular'
p8025
(I114815
I1
tp8026
sS'667'
p8027
(I18461
I1
tp8028
sVoutgo
p8029
(I177121
I1
tp8030
sVbecam
p8031
(I46324
I6
tp8032
sVopposit
p8033
(I174695
I3
tp8034
sVaris
p8035
(I39037
I11
tp8036
sS'fatal'
p8037
(I104089
I3
tp8038
sS'sent'
p8039
(I216521
I4
tp8040
sS'918'
p8041
(I20637
I1
tp8042
sVpassiv
p8043
(I181423
I1
tp8044
sS'drunk'
p8045
(I90922
I1
tp8046
sS'mainstream'
p8047
(I152666
I1
tp8048
sS'719'
p8049
(I19221
I2
tp8050
sS'718'
p8051
(I19207
I1
tp8052
sVdisclos
p8053
(I86072
I6
tp8054
sS'713'
p8055
(I19193
I1
tp8056
sVjudicatur
p8057
(I139269
I1
tp8058
sVdefamatori
p8059
(I80323
I2
tp8060
sVwave
p8061
(I260931
I1
tp8062
sS'lopez'
p8063
(I150540
I1
tp8064
sS'273'
p8065
(I11755
I1
tp8066
sS'1863'
p8067
(I5571
I1
tp8068
sS'505'
p8069
(I16674
I1
tp8070
sVrelev
p8071
(I204267
I16
tp8072
sS'1336'
p8073
(I3664
I1
tp8074
sVtri
p8075
(I249734
I15
tp8076
sVdicken
p8077
(I84305
I1
tp8078
sVmisplac
p8079
(I159267
I1
tp8080
sS'stiff'
p8081
(I230329
I1
tp8082
sVmanifestli
p8083
(I154109
I8
tp8084
sS'1063'
p8085
(I2174
I1
tp8086
sS'shock'
p8087
(I220199
I2
tp8088
sS'michael'
p8089
(I158246
I3
tp8090
sS'1064'
p8091
(I2188
I1
tp8092
sS'vautier'
p8093
(I257432
I1
tp8094
sVtransocean
p8095
(I249371
I1
tp8096
sS'race'
p8097
(I198473
I3
tp8098
sS'913'
p8099
(I20623
I1
tp8100
sS'dealt'
p8101
(I78904
I5
tp8102
sVmarri
p8103
(I154801
I2
tp8104
sS'freed'
p8105
(I110161
I1
tp8106
sVinexcus
p8107
(I130945
I1
tp8108
sS'layman'
p8109
(I144940
I1
tp8110
sVpleas
p8111
(I185893
I4
tp8112
sVvehicl
p8113
(I257461
I8
tp8114
sVimpli
p8115
(I127399
I5
tp8116
sS'smaller'
p8117
(I224870
I3
tp8118
sVfortun
p8119
(I109151
I1
tp8120
sS'594'
p8121
(I17568
I2
tp8122
sVmeticul
p8123
(I158190
I1
tp8124
sS'1080'
p8125
(I2216
I1
tp8126
sS'599'
p8127
(I17637
I1
tp8128
sVnatur
p8129
(I163980
I15
tp8130
sS'jc'
p8131
(I137785
I2
tp8132
sVagreeabl
p8133
(I29442
I1
tp8134
sVjump
p8135
(I139583
I1
tp8136
sS'hawkin'
p8137
(I118300
I1
tp8138
sVplead
p8139
(I185730
I12
tp8140
sS'velu'
p8141
(I257588
I1
tp8142
sVsimplicit
p8143
(I222805
I1
tp8144
sS'odd'
p8145
(I170778
I2
tp8146
sS'victor'
p8147
(I258409
I2
tp8148
sS'index'
p8149
(I130297
I2
tp8150
sS'serangoon'
p8151
(I217165
I1
tp8152
sVcompar
p8153
(I65497
I3
tp8154
sVconspir
p8155
(I69349
I1
tp8156
sS'dealer'
p8157
(I78890
I1
tp8158
sVshatwel
p8159
(I219736
I1
tp8160
sS'slight'
p8161
(I224538
I1
tp8162
sS'subhag'
p8163
(I232032
I1
tp8164
sVaccess
p8165
(I23344
I1
tp8166
sVhourli
p8167
(I123806
I1
tp8168
sVaccomplic
p8169
(I23526
I4
tp8170
sS'indian'
p8171
(I130364
I5
tp8172
sS'nearest'
p8173
(I164254
I1
tp8174
sS'johor'
p8175
(I138244
I2
tp8176
sS't'
p8177
(I236487
I8
tp8178
sVquiescenc
p8179
(I198088
I1
tp8180
sS'3b'
p8181
(I14395
I1
tp8182
sS'wn'
p8183
(I268329
I1
tp8184
sVinjustic
p8185
(I131896
I1
tp8186
sS'3g'
p8187
(I14423
I1
tp8188
sVpictur
p8189
(I184464
I1
tp8190
sS'3d'
p8191
(I14409
I1
tp8192
sVpenalti
p8193
(I182373
I3
tp8194
sVperimet
p8195
(I182897
I1
tp8196
sS'led'
p8197
(I145658
I8
tp8198
sS'lee'
p8199
(I145766
I10
tp8200
sS'ibid'
p8201
(I125448
I1
tp8202
sVprosecut
p8203
(I193648
I17
tp8204
sVusag
p8205
(I255991
I1
tp8206
sS'440'
p8207
(I15363
I1
tp8208
sS'1331'
p8209
(I3650
I1
tp8210
sVpunch
p8211
(I195688
I1
tp8212
sS'leo'
p8213
(I146711
I3
tp8214
sVbodi
p8215
(I50454
I5
tp8216
sVpump
p8217
(I195661
I2
tp8218
sS'quell'
p8219
(I197719
I1
tp8220
sS'let'
p8221
(I147055
I7
tp8222
sS'kwang'
p8223
(I142826
I2
tp8224
sS'127'
p8225
(I3306
I1
tp8226
sS'sing'
p8227
(I223095
I2
tp8228
sVbecom
p8229
(I46679
I9
tp8230
sS'forthright'
p8231
(I109029
I2
tp8232
sVsinc
p8233
(I222887
I14
tp8234
sVjointli
p8235
(I138394
I2
tp8236
sVacquir
p8237
(I24801
I3
tp8238
sS'cyclist'
p8239
(I77434
I1
tp8240
sS'39'
p8241
(I14202
I3
tp8242
sS'38'
p8243
(I14064
I6
tp8244
sVconvers
p8245
(I71767
I8
tp8246
sS'broken'
p8247
(I52173
I2
tp8248
sS'33'
p8249
(I13280
I5
tp8250
sS'32'
p8251
(I13168
I4
tp8252
sS'31'
p8253
(I12948
I10
tp8254
sS'30'
p8255
(I12548
I14
tp8256
sS'37'
p8257
(I13938
I4
tp8258
sS'36'
p8259
(I13829
I3
tp8260
sS'35'
p8261
(I13624
I3
tp8262
sS'34'
p8263
(I13447
I7
tp8264
sS'641'
p8265
(I18296
I1
tp8266
sVmolest
p8267
(I160145
I3
tp8268
sS'survey'
p8269
(I235959
I1
tp8270
sS'zement'
p8271
(I271861
I1
tp8272
sVdefeat
p8273
(I80407
I2
tp8274
sVearli
p8275
(I92179
I6
tp8276
sS'opinion'
p8277
(I174327
I15
tp8278
sVchang
p8279
(I58470
I5
tp8280
sS'maker'
p8281
(I153145
I3
tp8282
sVchanc
p8283
(I58373
I4
tp8284
sVreinsur
p8285
(I203577
I1
tp8286
sVemploye
p8287
(I94303
I6
tp8288
sS'malayan'
p8289
(I153239
I1
tp8290
sVsympathet
p8291
(I236417
I1
tp8292
sS'339'
p8293
(I13419
I1
tp8294
sS'338'
p8295
(I13392
I2
tp8296
sVclark
p8297
(I61982
I1
tp8298
sS'danger'
p8299
(I77806
I3
tp8300
sVappli
p8301
(I37027
I16
tp8302
sS'app'
p8303
(I35915
I8
tp8304
sVwil
p8305
(I266318
I2
tp8306
sVdisciplin
p8307
(I86045
I2
tp8308
sS'sgt'
p8309
(I219253
I3
tp8310
sS'333'
p8311
(I13364
I1
tp8312
sS'palakrishnan'
p8313
(I179135
I2
tp8314
sS'pillion'
p8315
(I184614
I2
tp8316
sVwit
p8317
(I267046
I16
tp8318
sS'arthur'
p8319
(I39902
I1
tp8320
sS'motor'
p8321
(I161777
I4
tp8322
sVdeputi
p8323
(I82488
I19
tp8324
sVlimb
p8325
(I148732
I2
tp8326
sVtap
p8327
(I237711
I2
tp8328
sVcloud
p8329
(I63122
I1
tp8330
sS'lorong'
p8331
(I150746
I1
tp8332
sS'queenstown'
p8333
(I197691
I1
tp8334
sVuse
p8335
(I256005
I22
tp8336
sS'fee'
p8337
(I104704
I4
tp8338
sS'from'
p8339
(I110369
I25
tp8340
sVpawn
p8341
(I181699
I1
tp8342
sS'usa'
p8343
(I255977
I1
tp8344
sVcommun
p8345
(I65300
I4
tp8346
sS's7703059'
p8347
(I211410
I1
tp8348
sS'kin'
p8349
(I141490
I2
tp8350
sS'24pm'
p8351
(I10902
I1
tp8352
sVupgrad
p8353
(I255482
I1
tp8354
sS'next'
p8355
(I165793
I12
tp8356
sVimplic
p8357
(I127468
I6
tp8358
sS'few'
p8359
(I105185
I9
tp8360
sS'doubt'
p8361
(I89395
I18
tp8362
sVadvoc
p8363
(I27524
I1
tp8364
sS'chu'
p8365
(I60455
I2
tp8366
sVexpiri
p8367
(I100916
I1
tp8368
sS'atkin'
p8369
(I42231
I1
tp8370
sVreynold
p8371
(I209233
I1
tp8372
sS'sien'
p8373
(I221692
I1
tp8374
sS'sort'
p8375
(I226945
I6
tp8376
sS'clever'
p8377
(I62734
I1
tp8378
sVstem
p8379
(I230122
I1
tp8380
sVconniv
p8381
(I68314
I1
tp8382
sS'846'
p8383
(I20075
I1
tp8384
sS'diplock'
p8385
(I85311
I3
tp8386
sS'puran'
p8387
(I196127
I1
tp8388
sVimpress
p8389
(I128038
I4
tp8390
sS'about'
p8391
(I22170
I21
tp8392
sS'848'
p8393
(I20089
I1
tp8394
sS'sore'
p8395
(I226917
I1
tp8396
sVtrain
p8397
(I249079
I1
tp8398
sS'recount'
p8399
(I201789
I1
tp8400
sS'throw'
p8401
(I245979
I2
tp8402
sVgambl
p8403
(I111841
I2
tp8404
sS'iii'
p8405
(I126533
I7
tp8406
sS'women'
p8407
(I268480
I4
tp8408
sS'codrington'
p8409
(I63637
I1
tp8410
sVreproduct
p8411
(I206450
I1
tp8412
sS'account'
p8413
(I24137
I11
tp8414
sS'rice'
p8415
(I209261
I1
tp8416
sS'f'
p8417
(I102102
I4
tp8418
sVridg
p8419
(I209397
I1
tp8420
sS'alia'
p8421
(I30180
I7
tp8422
sVride
p8423
(I209330
I2
tp8424
sVtestimoni
p8425
(I239581
I6
tp8426
sVcritic
p8427
(I76417
I3
tp8428
sVcumbersom
p8429
(I77021
I1
tp8430
sS'amarjeet'
p8431
(I32762
I1
tp8432
sS'pillai'
p8433
(I184587
I2
tp8434
sS'condominium'
p8435
(I67474
I1
tp8436
sVobvious
p8437
(I170160
I7
tp8438
sS'thin'
p8439
(I244132
I2
tp8440
sVexecutor
p8441
(I100012
I1
tp8442
sS'jordan'
p8443
(I138601
I1
tp8444
sS'meet'
p8445
(I157000
I5
tp8446
sVreoccurr
p8447
(I205610
I1
tp8448
sVscribbl
p8449
(I214095
I1
tp8450
sS'withdrew'
p8451
(I267699
I2
tp8452
sValiv
p8453
(I30343
I2
tp8454
sS'proof'
p8455
(I192986
I8
tp8456
sS'control'
p8457
(I71534
I10
tp8458
sS'tau'
p8459
(I237833
I3
tp8460
sS'weaker'
p8461
(I261456
I1
tp8462
sS'patrol'
p8463
(I181602
I1
tp8464
sVcoincident
p8465
(I63760
I1
tp8466
sVcontempl
p8467
(I70178
I3
tp8468
sS'plate'
p8469
(I185428
I3
tp8470
sVprocess
p8471
(I192161
I8
tp8472
sS'lock'
p8473
(I149873
I2
tp8474
sS'slim'
p8475
(I224552
I1
tp8476
sS'tax'
p8477
(I237914
I3
tp8478
sS'tay'
p8479
(I237996
I3
tp8480
sS'high'
p8481
(I121213
I22
tp8482
sVluggag
p8483
(I151615
I2
tp8484
sVproprietari
p8485
(I193594
I1
tp8486
sS'neighbour'
p8487
(I165092
I1
tp8488
sS'beng'
p8489
(I48838
I2
tp8490
sS'chic'
p8491
(I59686
I1
tp8492
sS'sought'
p8493
(I227027
I11
tp8494
sS'comismar'
p8495
(I64443
I1
tp8496
sVcrimin
p8497
(I76150
I19
tp8498
sS'518'
p8499
(I16842
I3
tp8500
sS'tah'
p8501
(I236663
I1
tp8502
sS'tan'
p8503
(I237476
I13
tp8504
sS'rape'
p8505
(I199176
I1
tp8506
sVhangar
p8507
(I117542
I1
tp8508
sVfairpric
p8509
(I103393
I1
tp8510
sS'30cm'
p8511
(I12920
I1
tp8512
sVsurfac
p8513
(I235698
I2
tp8514
sS'cjbc'
p8515
(I61595
I1
tp8516
sVsit
p8517
(I223906
I6
tp8518
sS'230'
p8519
(I10152
I1
tp8520
sS'six'
p8521
(I224154
I9
tp8522
sVdegre
p8523
(I81105
I7
tp8524
sVhereund
p8525
(I120565
I1
tp8526
sS'199404857z'
p8527
(I7958
I1
tp8528
sS'delay'
p8529
(I81200
I2
tp8530
sS'sia'
p8531
(I221453
I1
tp8532
sS'carrier'
p8533
(I56370
I1
tp8534
sS'charrington'
p8535
(I59041
I1
tp8536
sS'sie'
p8537
(I221677
I1
tp8538
sS'2180x'
p8539
(I9553
I1
tp8540
sS'instead'
p8541
(I132663
I12
tp8542
sVinsupport
p8543
(I133143
I1
tp8544
sS'umbc'
p8545
(I251937
I1
tp8546
sS'panic'
p8547
(I179247
I1
tp8548
sS'sin'
p8549
(I222860
I2
tp8550
sS'sim'
p8551
(I222229
I4
tp8552
sS'chou'
p8553
(I60344
I1
tp8554
sS'kia'
p8555
(I141380
I1
tp8556
sVhick
p8557
(I121130
I1
tp8558
sS'robertson'
p8559
(I210175
I1
tp8560
sVfinanc
p8561
(I105796
I3
tp8562
sS'attend'
p8563
(I42575
I3
tp8564
sS'singular'
p8565
(I223670
I1
tp8566
sS'wu'
p8567
(I270219
I1
tp8568
sS'80mg'
p8569
(I19966
I1
tp8570
sVact
p8571
(I24990
I24
tp8572
sVforfeitur
p8573
(I108724
I2
tp8574
sVhazard
p8575
(I118314
I1
tp8576
sS'ronald'
p8577
(I210395
I2
tp8578
sS'discomfort'
p8579
(I86181
I1
tp8580
sVexculpatori
p8581
(I99913
I1
tp8582
sVattent
p8583
(I42615
I9
tp8584
sVdiscard
p8585
(I85922
I1
tp8586
sS'154'
p8587
(I4487
I1
tp8588
sS'1886'
p8589
(I5640
I1
tp8590
sVredund
p8591
(I202118
I2
tp8592
sS'coast'
p8593
(I63402
I2
tp8594
sVphysic
p8595
(I184326
I3
tp8596
sVapposit
p8597
(I37565
I1
tp8598
sVtenant
p8599
(I238711
I1
tp8600
sS'pocket'
p8601
(I186061
I1
tp8602
sVpersona
p8603
(I183606
I1
tp8604
sS'dw1'
p8605
(I91669
I1
tp8606
sVessenti
p8607
(I97109
I12
tp8608
sS'siu'
p8609
(I224126
I1
tp8610
sVnanci
p8611
(I163692
I1
tp8612
sS'kashmira'
p8613
(I140615
I1
tp8614
sVseriou
p8615
(I217357
I9
tp8616
sS'944'
p8617
(I20692
I1
tp8618
sS'kiah'
p8619
(I141394
I1
tp8620
sVhawk
p8621
(I118286
I1
tp8622
sVcorrespond
p8623
(I73301
I8
tp8624
sS'element'
p8625
(I93635
I6
tp8626
sVissu
p8627
(I136175
I20
tp8628
sS'chief'
p8629
(I59728
I5
tp8630
sVgratif
p8631
(I114856
I1
tp8632
sS'writ'
p8633
(I269737
I4
tp8634
sVunaccept
p8635
(I252155
I1
tp8636
sS'allow'
p8637
(I31031
I18
tp8638
sVtamper
p8639
(I237448
I1
tp8640
sS'pardi'
p8641
(I179706
I1
tp8642
sS'dpp'
p8643
(I89880
I2
tp8644
sS'loud'
p8645
(I151035
I1
tp8646
sVfurnish
p8647
(I111223
I4
tp8648
sVbreast
p8649
(I51704
I1
tp8650
sVbaseless
p8651
(I45476
I1
tp8652
sVelia
p8653
(I93731
I2
tp8654
sS'mute'
p8655
(I162753
I1
tp8656
sS'move'
p8657
(I161931
I5
tp8658
sS'133'
p8659
(I3636
I1
tp8660
sS'whilst'
p8661
(I264968
I7
tp8662
sS'131'
p8663
(I3608
I1
tp8664
sVdesper
p8665
(I83194
I2
tp8666
sS'137'
p8667
(I3802
I3
tp8668
sS'136'
p8669
(I3775
I2
tp8670
sS'135'
p8671
(I3719
I4
tp8672
sS'134'
p8673
(I3678
I2
tp8674
sS'246455'
p8675
(I10693
I1
tp8676
sS'siong'
p8677
(I223726
I2
tp8678
sS'246451'
p8679
(I10665
I1
tp8680
sS'hock'
p8681
(I122743
I3
tp8682
sS'246453'
p8683
(I10679
I1
tp8684
sS'warren'
p8685
(I260792
I1
tp8686
sVwrite
p8687
(I269795
I6
tp8688
sS'wr'
p8689
(I269669
I1
tp8690
sVmovabl
p8691
(I161917
I1
tp8692
sS'till'
p8693
(I246429
I1
tp8694
sS'chosen'
p8695
(I60330
I1
tp8696
sS'448m'
p8697
(I15419
I1
tp8698
sS'lj'
p8699
(I149530
I8
tp8700
sS'li'
p8701
(I147386
I1
tp8702
sS'sweeper'
p8703
(I236307
I1
tp8704
sS'lt'
p8705
(I151351
I2
tp8706
sS'blatant'
p8707
(I50055
I2
tp8708
sS'restrain'
p8709
(I207952
I3
tp8710
sS'lp'
p8711
(I151297
I2
tp8712
sVgrill
p8713
(I115157
I1
tp8714
sVdecad
p8715
(I79208
I1
tp8716
sVtherefor
p8717
(I242539
I19
tp8718
sS'hoffman'
p8719
(I122797
I1
tp8720
sVpreval
p8721
(I190101
I1
tp8722
sS'ly'
p8723
(I151697
I1
tp8724
sS'ccgo'
p8725
(I57567
I1
tp8726
sS'junction'
p8727
(I139597
I2
tp8728
sS'fourth'
p8729
(I109830
I5
tp8730
sS'pearl'
p8731
(I182113
I1
tp8732
sS'dac'
p8733
(I77642
I1
tp8734
sVhandl
p8735
(I117445
I4
tp8736
sS'ntuc'
p8737
(I168830
I1
tp8738
sS'spell'
p8739
(I227861
I1
tp8740
sVearn
p8741
(I92424
I2
tp8742
sVdilig
p8743
(I85215
I1
tp8744
sVoveraw
p8745
(I177588
I1
tp8746
sS'mention'
p8747
(I157376
I10
tp8748
sS'ginsin'
p8749
(I113000
I1
tp8750
sS'spelt'
p8751
(I227875
I2
tp8752
sVtribun
p8753
(I250192
I25
tp8754
sVfacilit
p8755
(I102416
I1
tp8756
sVkiss
p8757
(I141627
I1
tp8758
sVfingerprint
p8759
(I106362
I1
tp8760
sS'front'
p8761
(I110725
I5
tp8762
sVgarner
p8763
(I112061
I1
tp8764
sS'cage'
p8765
(I54247
I1
tp8766
sS'day'
p8767
(I78384
I17
tp8768
sVdiagon
p8769
(I84154
I1
tp8770
sS'10pm'
p8771
(I2338
I5
tp8772
sVsomewher
p8773
(I226628
I1
tp8774
sVmodu
p8775
(I160048
I1
tp8776
sVanyth
p8777
(I35614
I13
tp8778
sVedit
p8779
(I92806
I1
tp8780
sVsubrog
p8781
(I232761
I1
tp8782
sS'246624'
p8783
(I10777
I1
tp8784
sVfebruari
p8785
(I104484
I12
tp8786
sVcorruptli
p8787
(I73521
I1
tp8788
sVmode
p8789
(I159886
I2
tp8790
sS'truth'
p8791
(I250959
I7
tp8792
sVdisregard
p8793
(I87497
I4
tp8794
sS'feilden'
p8795
(I104801
I1
tp8796
sS'circular'
p8797
(I60717
I1
tp8798
sS'purshottam'
p8799
(I196583
I1
tp8800
sVsocieti
p8801
(I225493
I2
tp8802
sS'eastern'
p8803
(I92559
I1
tp8804
sS'chung'
p8805
(I60552
I2
tp8806
sS'sng'
p8807
(I225088
I1
tp8808
sVintellig
p8809
(I133272
I1
tp8810
sS'706'
p8811
(I19125
I1
tp8812
sS'senthilnathan'
p8813
(I216848
I1
tp8814
sS'144'
p8815
(I4129
I1
tp8816
sS'siow'
p8817
(I223753
I1
tp8818
sVimposit
p8819
(I127958
I3
tp8820
sS'siok'
p8821
(I223712
I1
tp8822
sS'89'
p8823
(I20281
I1
tp8824
sVmete
p8825
(I158120
I1
tp8826
sVscanti
p8827
(I213598
I1
tp8828
sS'our'
p8829
(I176591
I11
tp8830
sS'80'
p8831
(I19882
I4
tp8832
sS'81'
p8833
(I19980
I2
tp8834
sS'86'
p8835
(I20145
I1
tp8836
sS'87'
p8837
(I20187
I3
tp8838
sS'84'
p8839
(I20035
I3
tp8840
sS'out'
p8841
(I176761
I23
tp8842
sS'karthigesu'
p8843
(I140545
I4
tp8844
sS'twice'
p8845
(I251367
I2
tp8846
sVinfluenc
p8847
(I131154
I2
tp8848
sVpointless
p8849
(I186402
I1
tp8850
sVdefend
p8851
(I80717
I12
tp8852
sS'closer'
p8853
(I63026
I2
tp8854
sS'rev'
p8855
(I208773
I4
tp8856
sVdefenc
p8857
(I80462
I18
tp8858
sS'facto'
p8859
(I102756
I1
tp8860
sVdischarg
p8861
(I85950
I7
tp8862
sVcategori
p8863
(I56988
I5
tp8864
sVsecretli
p8865
(I214745
I1
tp8866
sS'geok'
p8867
(I112627
I3
tp8868
sS'mate'
p8869
(I154993
I2
tp8870
sVstuf
p8871
(I231908
I1
tp8872
sS'playground'
p8873
(I185661
I1
tp8874
sVrel
p8875
(I203769
I4
tp8876
sS'cwn'
p8877
(I77406
I1
tp8878
sS'reb'
p8879
(I200891
I1
tp8880
sVwick
p8881
(I266110
I1
tp8882
sVuninvolv
p8883
(I253761
I1
tp8884
sS'plural'
p8885
(I185991
I1
tp8886
sS'reg'
p8887
(I202794
I1
tp8888
sS'red'
p8889
(I201938
I5
tp8890
sS'thereupon'
p8891
(I243049
I3
tp8892
sS'ab52'
p8893
(I21603
I1
tp8894
sVclarifi
p8895
(I61955
I2
tp8896
sS'shut'
p8897
(I221383
I4
tp8898
sVunsubstanti
p8899
(I254806
I1
tp8900
sS'umbrella'
p8901
(I251951
I1
tp8902
sVinsid
p8903
(I132211
I5
tp8904
sS'1987'
p8905
(I7161
I4
tp8906
sVregulatori
p8907
(I203454
I1
tp8908
sVtenanc
p8909
(I238696
I1
tp8910
sS'cheong'
p8911
(I59480
I1
tp8912
sS'1984'
p8913
(I7066
I2
tp8914
sS'588'
p8915
(I17527
I2
tp8916
sVmango
p8917
(I153971
I1
tp8918
sS'70m'
p8919
(I19139
I1
tp8920
sS'ast'
p8921
(I41846
I1
tp8922
sVundu
p8923
(I253374
I2
tp8924
sS'york'
p8925
(I271372
I1
tp8926
sVdictionari
p8927
(I84347
I2
tp8928
sS'latest'
p8929
(I144215
I1
tp8930
sVreleas
p8931
(I204129
I10
tp8932
sS'1982'
p8933
(I7012
I2
tp8934
sS'philip'
p8935
(I184133
I1
tp8936
sS'149'
p8937
(I4199
I1
tp8938
sS'likelihood'
p8939
(I148534
I1
tp8940
sS'shuk'
p8941
(I221369
I1
tp8942
sS'quo'
p8943
(I198197
I1
tp8944
sVcomplianc
p8945
(I66268
I2
tp8946
sS'chilli'
p8947
(I59851
I1
tp8948
sS'seow'
p8949
(I216889
I2
tp8950
sVseptemb
p8951
(I216986
I7
tp8952
sS'1433'
p8953
(I4115
I1
tp8954
sS'g'
p8955
(I111718
I6
tp8956
sS'spill'
p8957
(I228012
I1
tp8958
sS'1889'
p8959
(I5654
I1
tp8960
sS'could'
p8961
(I73689
I25
tp8962
sS'area'
p8963
(I38529
I6
tp8964
sVlevi
p8965
(I147332
I1
tp8966
sS'keep'
p8967
(I140792
I8
tp8968
sS'keen'
p8969
(I140752
I3
tp8970
sS'lta'
p8971
(I151378
I2
tp8972
sVenforc
p8973
(I94919
I3
tp8974
sVorganis
p8975
(I175773
I2
tp8976
sVoutsid
p8977
(I177246
I8
tp8978
sS'ltd'
p8979
(I151406
I14
tp8980
sS'retain'
p8981
(I208376
I2
tp8982
sVimput
p8983
(I128407
I2
tp8984
sVscarc
p8985
(I213612
I2
tp8986
sS'tenor'
p8987
(I238850
I1
tp8988
sVscare
p8989
(I213639
I1
tp8990
sS'south'
p8991
(I227247
I1
tp8992
sS'mad'
p8993
(I151971
I1
tp8994
sVendors
p8995
(I94905
I1
tp8996
sS'33pm'
p8997
(I13433
I1
tp8998
sS'yong'
p8999
(I271073
I21
tp9000
sVchristoph
p9001
(I60414
I1
tp9002
sVindiscrimin
p9003
(I130654
I1
tp9004
sS'451'
p9005
(I15516
I1
tp9006
sS'452'
p9007
(I15530
I1
tp9008
sVdiscourag
p9009
(I86223
I2
tp9010
sVqualiti
p9011
(I197434
I3
tp9012
sS'scene'
p9013
(I213708
I4
tp9014
sS'456'
p9015
(I15614
I1
tp9016
sS'58'
p9017
(I17513
I1
tp9018
sVtier
p9019
(I246373
I1
tp9020
sS'eleventh'
p9021
(I93717
I1
tp9022
sVplainli
p9023
(I185122
I4
tp9024
sVmaterialis
p9025
(I155292
I1
tp9026
sS'owner'
p9027
(I178083
I9
tp9028
sS'art'
p9029
(I39888
I1
tp9030
sVfacil
p9031
(I102389
I2
tp9032
sS'1885'
p9033
(I5626
I1
tp9034
sVsuffic
p9035
(I234045
I2
tp9036
sVprioriti
p9037
(I191117
I3
tp9038
sVforgeri
p9039
(I108767
I1
tp9040
sVsupposedli
p9041
(I235502
I1
tp9042
sVbonus
p9043
(I50606
I1
tp9044
sS'fair'
p9045
(I103254
I6
tp9046
sS'strict'
p9047
(I231522
I5
tp9048
sVunrebut
p9049
(I254531
I2
tp9050
sVlaps
p9051
(I143618
I3
tp9052
sVperfectli
p9053
(I182757
I4
tp9054
sS'seat'
p9055
(I214302
I2
tp9056
sVcapac
p9057
(I55655
I3
tp9058
sVmessag
p9059
(I157942
I3
tp9060
sS'their'
p9061
(I240983
I20
tp9062
sVattack
p9063
(I42341
I2
tp9064
sS'swear'
p9065
(I236266
I1
tp9066
sVsadli
p9067
(I211452
I1
tp9068
sS'sergeant'
p9069
(I217179
I5
tp9070
sS'312'
p9071
(I13085
I1
tp9072
sS'scant'
p9073
(I213584
I1
tp9074
sVtermin
p9075
(I239221
I4
tp9076
sVlicenc
p9077
(I147795
I6
tp9078
sS'wilkinson'
p9079
(I266359
I2
tp9080
sVfinal
p9081
(I105633
I12
tp9082
sS'cabin'
p9083
(I54219
I1
tp9084
sS'misunderstood'
p9085
(I159458
I2
tp9086
sVshophous
p9087
(I220310
I1
tp9088
sVpalpabl
p9089
(I179190
I1
tp9090
sS'stomach'
p9091
(I230700
I1
tp9092
sVlot
p9093
(I150965
I4
tp9094
sVvillag
p9095
(I258876
I1
tp9096
sVpunish
p9097
(I195974
I11
tp9098
sVjuli
p9099
(I139379
I13
tp9100
sVdiscretionari
p9101
(I86521
I2
tp9102
sS'rsc'
p9103
(I210687
I1
tp9104
sS'kota'
p9105
(I142647
I1
tp9106
sVaccompani
p9107
(I23457
I5
tp9108
sS'45m'
p9109
(I15696
I1
tp9110
sVquarri
p9111
(I197595
I1
tp9112
sS'lowbar'
p9113
(I151172
I1
tp9114
sS'venal'
p9115
(I257602
I1
tp9116
sS'shariff'
p9117
(I219641
I1
tp9118
sVexactli
p9119
(I98945
I5
tp9120
sS'chong'
p9121
(I60085
I6
tp9122
sVstrictli
p9123
(I231591
I1
tp9124
sS'246614'
p9125
(I10763
I1
tp9126
sS'waist'
p9127
(I260105
I1
tp9128
sVsuccinctli
p9129
(I233545
I1
tp9130
sS'photograph'
p9131
(I184203
I3
tp9132
sS'loy'
p9133
(I151255
I1
tp9134
sS'johnson'
p9135
(I138230
I1
tp9136
sVembodi
p9137
(I93893
I1
tp9138
sS'150k'
p9139
(I4459
I1
tp9140
sS'bother'
p9141
(I51181
I1
tp9142
sVconscious
p9143
(I68369
I1
tp9144
sS'lion'
p9145
(I149062
I1
tp9146
sS'bed'
p9147
(I46803
I2
tp9148
sS'yeng'
p9149
(I270740
I1
tp9150
sVcircumspect
p9151
(I60731
I1
tp9152
sVbind
p9153
(I49848
I3
tp9154
sVunworthi
p9155
(I255179
I1
tp9156
sS'india'
p9157
(I130324
I3
tp9158
sS'dw8'
p9159
(I91778
I1
tp9160
sVfraudul
p9161
(I110065
I2
tp9162
sS'sankey'
p9163
(I212585
I1
tp9164
sVexhibit
p9165
(I100285
I4
tp9166
sS'function'
p9167
(I111098
I4
tp9168
sS'counter'
p9169
(I74467
I2
tp9170
sS'broadway'
p9171
(I52117
I1
tp9172
sS'sea'
p9173
(I214191
I1
tp9174
sVclip
p9175
(I62805
I1
tp9176
sS'54'
p9177
(I17166
I4
tp9178
sVviewer
p9179
(I258754
I1
tp9180
sS'julian'
p9181
(I139555
I1
tp9182
sVclearli
p9183
(I62417
I16
tp9184
sVfetter
p9185
(I105158
I2
tp9186
sVcorrupt
p9187
(I73506
I1
tp9188
sS'thereto'
p9189
(I243008
I1
tp9190
sVimmigr
p9191
(I127164
I3
tp9192
sS'have'
p9193
(I117903
I25
tp9194
sVtabl
p9195
(I236595
I3
tp9196
sVneed
p9197
(I164690
I17
tp9198
sS'north'
p9199
(I167293
I1
tp9200
sVtownhous
p9201
(I248813
I1
tp9202
sS'11th'
p9203
(I2848
I1
tp9204
sS'q'
p9205
(I197086
I5
tp9206
sS'afraid'
p9207
(I27949
I2
tp9208
sS'nape'
p9209
(I163706
I1
tp9210
sS'min'
p9211
(I158628
I2
tp9212
sVrout
p9213
(I210617
I1
tp9214
sVexpos
p9215
(I101345
I1
tp9216
sS'maclean'
p9217
(I151957
I1
tp9218
sVarm
p9219
(I39217
I4
tp9220
sS'322'
p9221
(I13224
I1
tp9222
sVmix
p9223
(I159638
I1
tp9224
sVunawar
p9225
(I252253
I6
tp9226
sVdiscret
p9227
(I86425
I7
tp9228
sS'which'
p9229
(I264433
I24
tp9230
sVdiscrep
p9231
(I86398
I2
tp9232
sS'truck'
p9233
(I250698
I1
tp9234
sS'singh'
p9235
(I223451
I10
tp9236
sS'329'
p9237
(I13266
I1
tp9238
sVtarget
p9239
(I237765
I1
tp9240
sVgraviti
p9241
(I114897
I3
tp9242
sVsingl
p9243
(I223588
I6
tp9244
sVpractis
p9245
(I188277
I2
tp9246
sS'02'
p9247
(I833
I4
tp9248
sS'junior'
p9249
(I139806
I1
tp9250
sVunless
p9251
(I254092
I13
tp9252
sS'combat'
p9253
(I64186
I3
tp9254
sVpreliminari
p9255
(I188875
I3
tp9256
sS'who'
p9257
(I265159
I25
tp9258
sVwhi
p9259
(I264240
I14
tp9260
sVdiscov
p9261
(I86250
I8
tp9262
sVpresid
p9263
(I189632
I1
tp9264
sS'5am'
p9265
(I17665
I1
tp9266
sVoffend
p9267
(I171619
I8
tp9268
sS'visa'
p9269
(I259043
I3
tp9270
sS'eight'
p9271
(I93237
I4
tp9272
sS'tall'
p9273
(I237393
I1
tp9274
sS'sisv'
p9275
(I223892
I1
tp9276
sVjudici
p9277
(I139283
I6
tp9278
sS'payment'
p9279
(I181892
I9
tp9280
sVcomplementari
p9281
(I65954
I2
tp9282
sVrealtor
p9283
(I200475
I1
tp9284
sS'dishonest'
p9285
(I86698
I1
tp9286
sVfaci
p9287
(I102320
I5
tp9288
sVsensat
p9289
(I216440
I1
tp9290
sVbrassier
p9291
(I51513
I1
tp9292
sVinstig
p9293
(I132826
I1
tp9294
sS'gather'
p9295
(I112116
I2
tp9296
sVrequest
p9297
(I206478
I10
tp9298
sVstrategi
p9299
(I231344
I1
tp9300
sVissuanc
p9301
(I136449
I2
tp9302
sVinde
p9303
(I130008
I14
tp9304
sS'172'
p9305
(I5076
I1
tp9306
sVdeni
p9307
(I81925
I11
tp9308
sS'se'
p9309
(I214164
I2
tp9310
sVdetermin
p9311
(I83714
I13
tp9312
sVoccasion
p9313
(I170433
I1
tp9314
sVconstrain
p9315
(I69539
I1
tp9316
sS'kulai'
p9317
(I142730
I1
tp9318
sS'leasehold'
p9319
(I145313
I1
tp9320
sS'away'
p9321
(I43867
I9
tp9322
sVinexpens
p9323
(I130973
I1
tp9324
sS'gain'
p9325
(I111814
I2
tp9326
sS'guek'
p9327
(I115657
I1
tp9328
sVaffair
p9329
(I27538
I3
tp9330
sVlebanes
p9331
(I145602
I1
tp9332
sS'35am'
p9333
(I13788
I1
tp9334
sS'30pm'
p9335
(I12934
I1
tp9336
sS'text'
p9337
(I239679
I1
tp9338
sS'anyway'
p9339
(I35790
I1
tp9340
sVwatch
p9341
(I260848
I4
tp9342
sS'bring'
p9343
(I51884
I5
tp9344
sVclearanc
p9345
(I62389
I1
tp9346
sVenvisag
p9347
(I96311
I2
tp9348
sS'bedroom'
p9349
(I46870
I2
tp9350
sVinconsider
p9351
(I129624
I1
tp9352
sVutter
p9353
(I256447
I1
tp9354
sS'rough'
p9355
(I210589
I1
tp9356
sS'dtoa'
p9357
(I90979
I1
tp9358
sS'trivial'
p9359
(I250602
I2
tp9360
sS'overflow'
p9361
(I177602
I1
tp9362
sS'staff'
p9363
(I228560
I4
tp9364
sVanswer
p9365
(I35243
I10
tp9366
sVseizur
p9367
(I215820
I4
tp9368
sS'5pm'
p9369
(I17706
I1
tp9370
sVbicycl
p9371
(I49589
I1
tp9372
sS'q4'
p9373
(I197197
I1
tp9374
sS'sheriff'
p9375
(I220047
I2
tp9376
sS'cookson'
p9377
(I72343
I1
tp9378
sVcategor
p9379
(I56974
I1
tp9380
sVanticip
p9381
(I35477
I2
tp9382
sVcorrel
p9383
(I73287
I1
tp9384
sS'should'
p9385
(I220574
I21
tp9386
sVprolong
p9387
(I192736
I4
tp9388
sVgestur
p9389
(I112709
I2
tp9390
sVchuckerbutti
p9391
(I60538
I1
tp9392
sS'tape'
p9393
(I237738
I2
tp9394
sVintrigu
p9395
(I134871
I1
tp9396
sVhandcuf
p9397
(I117377
I3
tp9398
sS'sylvia'
p9399
(I236403
I1
tp9400
sS'he'
p9401
(I118328
I25
tp9402
sS'local'
p9403
(I149680
I9
tp9404
sS'choon'
p9405
(I60208
I3
tp9406
sS'hope'
p9407
(I123517
I2
tp9408
sS'finger'
p9409
(I106335
I2
tp9410
sS'meant'
p9411
(I156658
I8
tp9412
sS'straightaway'
p9413
(I231153
I1
tp9414
sS'996'
p9415
(I20981
I1
tp9416
sVcontribut
p9417
(I71466
I2
tp9418
sS'2462'
p9419
(I10511
I1
tp9420
sVsatisfact
p9421
(I212655
I5
tp9422
sVburglari
p9423
(I53018
I1
tp9424
sVfamiliar
p9425
(I103736
I1
tp9426
sVdisagre
p9427
(I85760
I3
tp9428
sVrush
p9429
(I210963
I3
tp9430
sS'bear'
p9431
(I46102
I11
tp9432
sVundischarg
p9433
(I253262
I1
tp9434
sS'121'
p9435
(I3108
I4
tp9436
sS'122'
p9437
(I3165
I4
tp9438
sS'123'
p9439
(I3222
I4
tp9440
sS'124'
p9441
(I3278
I1
tp9442
sS'raja'
p9443
(I198804
I1
tp9444
sVira
p9445
(I135541
I1
tp9446
sVincreas
p9447
(I129788
I3
tp9448
sS'129'
p9449
(I3334
I2
tp9450
sS'sahu'
p9451
(I211603
I1
tp9452
sVexculp
p9453
(I99899
I1
tp9454
sVantagonist
p9455
(I35380
I1
tp9456
sVsmash
p9457
(I224910
I1
tp9458
sS'520'
p9459
(I16922
I2
tp9460
sS'de'
p9461
(I78645
I1
tp9462
sVreluct
p9463
(I204776
I2
tp9464
sVorgan
p9465
(I175717
I4
tp9466
sS'132'
p9467
(I3622
I1
tp9468
sS'upper'
p9469
(I255786
I1
tp9470
sS'362'
p9471
(I13869
I2
tp9472
sS'1022'
p9473
(I2091
I1
tp9474
sS'shaw'
p9475
(I219750
I1
tp9476
sS'secret'
p9477
(I214731
I1
tp9478
sVsummon
p9479
(I234825
I4
tp9480
sS'qb'
p9481
(I197239
I5
tp9482
sS'counterfeit'
p9483
(I74508
I1
tp9484
sS'she'
p9485
(I219764
I17
tp9486
sVpartit
p9487
(I180926
I1
tp9488
sS'contain'
p9489
(I69975
I15
tp9490
sVgrab
p9491
(I114649
I1
tp9492
sS'11am'
p9493
(I2820
I1
tp9494
sVbackdat
p9495
(I44433
I1
tp9496
sS'view'
p9497
(I258436
I23
tp9498
sVconform
p9499
(I68134
I1
tp9500
sS'246647'
p9501
(I10819
I1
tp9502
sVslaveri
p9503
(I224469
I1
tp9504
sVcredibl
p9505
(I75793
I6
tp9506
sS'km'
p9507
(I141681
I1
tp9508
sS'frame'
p9509
(I109941
I4
tp9510
sVknowledg
p9511
(I142178
I11
tp9512
sS'salmon'
p9513
(I212144
I1
tp9514
sS'we'
p9515
(I261206
I16
tp9516
sVpacket
p9517
(I178791
I2
tp9518
sS'bte'
p9519
(I52612
I1
tp9520
sVendem
p9521
(I94891
I1
tp9522
sVimmov
p9523
(I127218
I2
tp9524
sVequip
p9525
(I96518
I1
tp9526
sS'allan'
p9527
(I30716
I1
tp9528
sS'726'
p9529
(I19316
I1
tp9530
sVstatu
p9531
(I229741
I5
tp9532
sVaros
p9533
(I39287
I7
tp9534
sVwa
p9535
(I259676
I25
tp9536
sVcorrectli
p9537
(I73192
I7
tp9538
sVevidenc
p9539
(I98754
I1
tp9540
sS'pattern'
p9541
(I181616
I2
tp9542
sS'teng'
p9543
(I238823
I2
tp9544
sS'thumb'
p9545
(I246251
I2
tp9546
sS'thong'
p9547
(I244708
I1
tp9548
sVtend
p9549
(I238726
I2
tp9550
sS'cottenham'
p9551
(I73661
I1
tp9552
sS'dlr'
p9553
(I88349
I1
tp9554
sS'written'
p9555
(I269904
I5
tp9556
sVunusu
p9557
(I255109
I4
tp9558
sVallud
p9559
(I31294
I1
tp9560
sVchemic
p9561
(I59356
I2
tp9562
sS'neither'
p9563
(I165134
I8
tp9564
sS'sold'
p9565
(I225591
I6
tp9566
sS'midnight'
p9567
(I158342
I1
tp9568
sS'bought'
p9569
(I51236
I4
tp9570
sS'1950'
p9571
(I6245
I1
tp9572
sVverifi
p9573
(I258013
I1
tp9574
sVcriticis
p9575
(I76457
I1
tp9576
sVmaxwel
p9577
(I155778
I1
tp9578
sS'superior'
p9579
(I234965
I2
tp9580
sS'kee'
p9581
(I140711
I2
tp9582
sS'notion'
p9583
(I168256
I1
tp9584
sS'00pm'
p9585
(I724
I1
tp9586
sVisol
p9587
(I136135
I3
tp9588
sVwilling
p9589
(I266663
I1
tp9590
sS'job'
p9591
(I138063
I4
tp9592
sVentir
p9593
(I95846
I9
tp9594
sVsmatter
p9595
(I224924
I1
tp9596
sS'key'
p9597
(I141133
I5
tp9598
sS'kew'
p9599
(I141105
I2
tp9600
sVdisput
p9601
(I87277
I11
tp9602
sVundoubt
p9603
(I253290
I1
tp9604
sS'poorer'
p9605
(I186832
I1
tp9606
sVpreconceiv
p9607
(I188645
I1
tp9608
sS'regular'
p9609
(I203426
I1
tp9610
sVaddit
p9611
(I26006
I11
tp9612
sVconstraint
p9613
(I69553
I1
tp9614
sS'tantrum'
p9615
(I237697
I1
tp9616
sS'instant'
p9617
(I132594
I5
tp9618
sVunrepres
p9619
(I254641
I1
tp9620
sS'parkhar'
p9621
(I179869
I1
tp9622
sVextens
p9623
(I101701
I2
tp9624
sS'career'
p9625
(I56096
I1
tp9626
sVreilli
p9627
(I203482
I2
tp9628
sS'equal'
p9629
(I96366
I9
tp9630
sS'drug'
p9631
(I90834
I5
tp9632
sVthereaft
p9633
(I242294
I6
tp9634
sS'april'
p9635
(I38069
I8
tp9636
sS'admit'
p9637
(I26694
I14
tp9638
sVinstanc
p9639
(I132512
I6
tp9640
sVsubordin
p9641
(I232651
I6
tp9642
sS'shashi'
p9643
(I219709
I2
tp9644
sS'acquaintanceship'
p9645
(I24787
I1
tp9646
sS'rama'
p9647
(I198900
I1
tp9648
sS'journey'
p9649
(I138629
I2
tp9650
sVwear
p9651
(I261525
I3
tp9652
sS'comment'
p9653
(I64610
I7
tp9654
sS'cj'
p9655
(I61293
I22
tp9656
sS'579'
p9657
(I17499
I1
tp9658
sS'unclear'
p9659
(I252404
I1
tp9660
sS'co'
p9661
(I63206
I14
tp9662
sS'extent'
p9663
(I101728
I9
tp9664
sVcalwel
p9665
(I54604
I1
tp9666
sS'cl'
p9667
(I61609
I1
tp9668
sS'cc'
p9669
(I57553
I1
tp9670
sVguidelin
p9671
(I115794
I2
tp9672
sS'ca'
p9673
(I54205
I1
tp9674
sS'570'
p9675
(I17485
I1
tp9676
sVarriv
p9677
(I39780
I8
tp9678
sVwalk
p9679
(I260230
I7
tp9680
sS'commend'
p9681
(I64596
I1
tp9682
sS'distinguish'
p9683
(I87716
I5
tp9684
sS'palaniappan'
p9685
(I179162
I1
tp9686
sS'taylor'
p9687
(I238037
I1
tp9688
sVlaugh
p9689
(I144394
I2
tp9690
sVcommenc
p9691
(I64472
I9
tp9692
sS'cr'
p9693
(I75493
I12
tp9694
sS'cp'
p9695
(I75365
I1
tp9696
sS'700'
p9697
(I19111
I1
tp9698
sS'withdrawn'
p9699
(I267643
I4
tp9700
sS'ct'
p9701
(I76912
I1
tp9702
sS'yeok'
p9703
(I270781
I1
tp9704
sVquit
p9705
(I198102
I7
tp9706
sS'bom'
p9707
(I50537
I1
tp9708
sVslowli
p9709
(I224663
I1
tp9710
sVfirstli
p9711
(I106780
I5
tp9712
sS'second'
p9713
(I214329
I18
tp9714
sVsolitari
p9715
(I225800
I1
tp9716
sS'distributor'
p9717
(I87907
I1
tp9718
sS'trademark'
p9719
(I248897
I1
tp9720
sS'yap'
p9721
(I270371
I2
tp9722
sS'cent'
p9723
(I57651
I1
tp9724
sVinsuffici
p9725
(I133074
I5
tp9726
sVcompon
p9727
(I66351
I1
tp9728
sS'yan'
p9729
(I270357
I1
tp9730
sVbesid
p9731
(I48921
I4
tp9732
sS'treat'
p9733
(I249581
I5
tp9734
sS'737'
p9735
(I19415
I1
tp9736
sS'certain'
p9737
(I57817
I11
tp9738
sS'dawood'
p9739
(I78356
I1
tp9740
sVimmedi
p9741
(I127001
I12
tp9742
sVmuddl
p9743
(I162280
I1
tp9744
sS'liverpool'
p9745
(I149502
I1
tp9746
sS'465'
p9747
(I15780
I1
tp9748
sVpresenc
p9749
(I189230
I10
tp9750
sS'466'
p9751
(I15794
I1
tp9752
sS'461'
p9753
(I15752
I1
tp9754
sS'assert'
p9755
(I41068
I6
tp9756
sS'sofjan'
p9757
(I225548
I1
tp9758
sS'zero'
p9759
(I271875
I1
tp9760
sVtogeth
p9761
(I247367
I11
tp9762
sVminim
p9763
(I158885
I1
tp9764
sS'overturn'
p9765
(I177727
I1
tp9766
sVplausibl
p9767
(I185496
I2
tp9768
sVpresent
p9769
(I189367
I18
tp9770
sVstatist
p9771
(I229714
I2
tp9772
sVingredi
p9773
(I131457
I4
tp9774
sS'debtor'
p9775
(I79179
I2
tp9776
sS'factual'
p9777
(I102867
I2
tp9778
sS'laser'
p9779
(I143793
I1
tp9780
sS'basket'
p9781
(I45668
I1
tp9782
sS'plain'
p9783
(I184985
I10
tp9784
sS'sultan'
p9785
(I234562
I1
tp9786
sVgent
p9787
(I112571
I1
tp9788
sS'will'
p9789
(I266386
I17
tp9790
sVdefin
p9791
(I80915
I8
tp9792
sS'ar'
p9793
(I38179
I1
tp9794
sVundisput
p9795
(I253276
I1
tp9796
sVdecept
p9797
(I79467
I2
tp9798
sVrightli
p9799
(I209644
I1
tp9800
sS'wanamaja'
p9801
(I260380
I1
tp9802
sS'faulkner'
p9803
(I104183
I1
tp9804
sVhowev
p9805
(I124324
I21
tp9806
sS'comiskey'
p9807
(I64429
I1
tp9808
sVpurchas
p9809
(I196141
I9
tp9810
sVfondl
p9811
(I107851
I1
tp9812
sVengag
p9813
(I94999
I7
tp9814
sS'helper'
p9815
(I119908
I1
tp9816
sS'juahir'
p9817
(I138656
I1
tp9818
sS'almost'
p9819
(I31308
I6
tp9820
sS'oversea'
p9821
(I177672
I1
tp9822
sS'site'
p9823
(I223988
I1
tp9824
sS'ab226'
p9825
(I21533
I1
tp9826
sVwage
p9827
(I260050
I1
tp9828
sVmotiv
p9829
(I161721
I4
tp9830
sVsubstanti
p9831
(I233270
I5
tp9832
sVbabul
p9833
(I44243
I1
tp9834
sVpartner
p9835
(I180940
I11
tp9836
sVrevis
p9837
(I209120
I4
tp9838
sS'thud'
p9839
(I246237
I1
tp9840
sVprocliv
p9841
(I192270
I1
tp9842
sVsurprisingli
p9843
(I235822
I3
tp9844
sS'greater'
p9845
(I115020
I2
tp9846
sS'portray'
p9847
(I187023
I1
tp9848
sVuniti
p9849
(I253911
I1
tp9850
sS'denial'
p9851
(I82078
I2
tp9852
sVwelcom
p9853
(I261964
I1
tp9854
sVjapanes
p9855
(I137757
I1
tp9856
sVparti
p9857
(I180268
I25
tp9858
sS'began'
p9859
(I47669
I1
tp9860
sVheadlight
p9861
(I118789
I1
tp9862
sVcross
p9863
(I76485
I16
tp9864
sS'defiant'
p9865
(I80901
I1
tp9866
sS'eric'
p9867
(I96780
I1
tp9868
sVmember
p9869
(I157125
I5
tp9870
sVinterpos
p9871
(I134164
I1
tp9872
sVschizophren
p9873
(I213848
I1
tp9874
sVwhenev
p9875
(I263450
I1
tp9876
sS'inc'
p9877
(I129032
I1
tp9878
sVinfer
p9879
(I131014
I9
tp9880
sS'fide'
p9881
(I105309
I2
tp9882
sS'difficult'
p9883
(I84970
I7
tp9884
sVcompetit
p9885
(I65730
I1
tp9886
sS'columbia'
p9887
(I64130
I2
tp9888
sS'absorb'
p9889
(I22886
I1
tp9890
sVinterrog
p9891
(I134329
I1
tp9892
sS'drink'
p9893
(I90452
I2
tp9894
sS'upon'
p9895
(I255552
I17
tp9896
sS'effect'
p9897
(I92875
I18
tp9898
sVcoffe
p9899
(I63665
I2
tp9900
sVcyclostyl
p9901
(I77448
I1
tp9902
sVunchalleng
p9903
(I252390
I1
tp9904
sS'nco'
p9905
(I164213
I1
tp9906
sS'sooner'
p9907
(I226889
I1
tp9908
sVlianh
p9909
(I147712
I1
tp9910
sS'ilsemann'
p9911
(I126889
I1
tp9912
sVdust
p9913
(I91501
I1
tp9914
sS'pedal'
p9915
(I182182
I1
tp9916
sVnation
p9917
(I163940
I3
tp9918
sS'judgment'
p9919
(I138981
I21
tp9920
sS'collar'
p9921
(I63802
I1
tp9922
sS'1955'
p9923
(I6356
I1
tp9924
sVretard
p9925
(I208417
I1
tp9926
sS'skelton'
p9927
(I224373
I1
tp9928
sS'off'
p9929
(I171187
I12
tp9930
sS'48'
p9931
(I15972
I4
tp9932
sS'phay'
p9933
(I184119
I1
tp9934
sS'lunch'
p9935
(I151670
I2
tp9936
sS'i'
p9937
(I125081
I24
tp9938
sVlaboratori
p9939
(I142994
I1
tp9940
sS'colour'
p9941
(I64090
I3
tp9942
sS'contest'
p9943
(I70659
I1
tp9944
sS'well'
p9945
(I261978
I18
tp9946
sS'1957'
p9947
(I6384
I2
tp9948
sS'thought'
p9949
(I245118
I11
tp9950
sVexampl
p9951
(I99304
I7
tp9952
sS'command'
p9953
(I64458
I1
tp9954
sS'oft'
p9955
(I172115
I2
tp9956
sS'english'
p9957
(I95188
I9
tp9958
sS'undertaken'
p9959
(I253165
I5
tp9960
sS'trishaw'
p9961
(I250561
I1
tp9962
sVguidanc
p9963
(I115738
I4
tp9964
sVusual
p9965
(I256349
I4
tp9966
sS'borth'
p9967
(I50865
I1
tp9968
sVclaifi
p9969
(I61623
I1
tp9970
sVdistanc
p9971
(I87594
I1
tp9972
sVphotocopi
p9973
(I184189
I1
tp9974
sVless
p9975
(I146808
I16
tp9976
sVboot
p9977
(I50701
I1
tp9978
sS'half'
p9979
(I116899
I6
tp9980
sS'obtain'
p9981
(I169901
I12
tp9982
sS'storey'
p9983
(I231017
I3
tp9984
sS'43'
p9985
(I15212
I5
tp9986
sS'246671'
p9987
(I10847
I1
tp9988
sVvirtual
p9989
(I259029
I1
tp9990
sVheavili
p9991
(I119476
I5
tp9992
sVepisod
p9993
(I96352
I1
tp9994
sS'paul'
p9995
(I181643
I2
tp9996
sVsimultan
p9997
(I222833
I2
tp9998
sVsystemat
p9999
(I236473
I1
tp10000
sS'265'
p10001
(I11465
I1
tp10002
sVdistress
p10003
(I87827
I3
tp10004
sS'adv'
p10005
(I27082
I4
tp10006
sS'rapid'
p10007
(I199191
I1
tp10008
sS'wee'
p10009
(I261593
I2
tp10010
sS'30am'
p10011
(I12893
I2
tp10012
sS'flee'
p10013
(I107318
I1
tp10014
sS'wei'
p10015
(I261772
I1
tp10016
sS'onward'
p10017
(I173885
I2
tp10018
sS'smith'
p10019
(I224952
I3
tp10020
sS'nazir'
p10021
(I164185
I1
tp10022
sS'484'
p10023
(I16056
I1
tp10024
sS'fled'
p10025
(I107304
I1
tp10026
sVarrest
p10027
(I39642
I10
tp10028
sS'add'
p10029
(I25952
I3
tp10030
sS'other'
p10031
(I175964
I23
tp10032
sS'adc'
p10033
(I25937
I1
tp10034
sVexempt
p10035
(I100040
I2
tp10036
sVcollis
p10037
(I64021
I2
tp10038
sS'283'
p10039
(I11991
I2
tp10040
sVintroduct
p10041
(I134952
I1
tp10042
sS'warrant'
p10043
(I260709
I6
tp10044
sS'284'
p10045
(I12018
I1
tp10046
sS'ought'
p10047
(I176453
I10
tp10048
sVfutur
p10049
(I111691
I2
tp10050
sS'photo'
p10051
(I184175
I1
tp10052
sS'branch'
p10053
(I51459
I3
tp10054
sVfate
p10055
(I104129
I1
tp10056
sS'mazumdar'
p10057
(I156101
I1
tp10058
sVpiec
p10059
(I184478
I7
tp10060
sVnagl
p10061
(I163251
I1
tp10062
sS'crux'
p10063
(I76871
I2
tp10064
sS'262'
p10065
(I11397
I2
tp10066
sS'261'
p10067
(I11370
I2
tp10068
sVrealiz
p10069
(I200335
I4
tp10070
sS'five'
p10071
(I106933
I11
tp10072
sS'know'
p10073
(I141943
I16
tp10074
sS'burden'
p10075
(I52880
I5
tp10076
sS'264'
p10077
(I11451
I1
tp10078
sS'hokkien'
p10079
(I122839
I3
tp10080
sVrealis
p10081
(I200280
I3
tp10082
sVheight
p10083
(I119573
I1
tp10084
sVdistract
p10085
(I87799
I1
tp10086
sS'7318'
p10087
(I19387
I1
tp10088
sVinsert
p10089
(I132171
I3
tp10090
sVmainten
p10091
(I152817
I1
tp10092
sVresid
p10093
(I206878
I3
tp10094
sS'like'
p10095
(I148331
I15
tp10096
sS'lost'
p10097
(I150870
I7
tp10098
sVincred
p10099
(I129828
I4
tp10100
sS'safest'
p10101
(I211548
I1
tp10102
sVcorpor
p10103
(I72877
I10
tp10104
sS'11pm'
p10105
(I2834
I1
tp10106
sS'fernando'
p10107
(I105076
I2
tp10108
sVdoctrin
p10109
(I88652
I2
tp10110
sVcertifi
p10111
(I58081
I1
tp10112
sVirresist
p10113
(I135694
I2
tp10114
sVnecessari
p10115
(I164309
I15
tp10116
sS'sanction'
p10117
(I212531
I3
tp10118
sVimprison
p10119
(I128094
I13
tp10120
sVpresuppos
p10121
(I190020
I1
tp10122
sVexemplari
p10123
(I100026
I1
tp10124
sS'rosidi'
p10125
(I210561
I1
tp10126
sVsoft
p10127
(I225562
I1
tp10128
sS'page'
p10129
(I178819
I5
tp10130
sVcorros
p10131
(I73492
I1
tp10132
sS'therein'
p10133
(I242829
I5
tp10134
sVconven
p10135
(I71685
I2
tp10136
sVexceed
p10137
(I99413
I5
tp10138
sS'drop'
p10139
(I90737
I3
tp10140
sS'haig'
p10141
(I116857
I1
tp10142
sVdispatch
p10143
(I87057
I1
tp10144
sVcaptur
p10145
(I55736
I1
tp10146
sS'sheo'
p10147
(I220033
I1
tp10148
sS'church'
p10149
(I60579
I1
tp10150
sVstuffi
p10151
(I231922
I1
tp10152
sS'self'
p10153
(I215932
I1
tp10154
sS'mohd'
p10155
(I160118
I2
tp10156
sS'vessel'
p10157
(I258149
I1
tp10158
sS'daylight'
p10159
(I78617
I1
tp10160
sS'116'
p10161
(I2752
I3
tp10162
sS'111'
p10163
(I2698
I3
tp10164
sVconvey
p10165
(I71889
I6
tp10166
sS'112'
p10167
(I2738
I1
tp10168
sS'proper'
p10169
(I193094
I8
tp10170
sS'home'
p10171
(I123170
I11
tp10172
sVparliamentari
p10173
(I179937
I1
tp10174
sS'peter'
p10175
(I183895
I2
tp10176
sS'transport'
p10177
(I249441
I4
tp10178
sS'iyer'
p10179
(I137286
I1
tp10180
sS'throughout'
p10181
(I245910
I5
tp10182
sS'leaf'
p10183
(I145103
I1
tp10184
sVbet
p10185
(I49047
I2
tp10186
sS'lead'
p10187
(I144981
I8
tp10188
sS'esp'
p10189
(I97026
I1
tp10190
sS'broad'
p10191
(I52023
I3
tp10192
sVavoid
p10193
(I43595
I8
tp10194
sVabduct
p10195
(I21771
I1
tp10196
sS'overlap'
p10197
(I177630
I1
tp10198
sS'14th'
p10199
(I4241
I1
tp10200
sVleas
p10201
(I145286
I2
tp10202
sS'tmc'
p10203
(I246902
I1
tp10204
sVleav
p10205
(I145409
I14
tp10206
sVsettl
p10207
(I218121
I5
tp10208
sVdisbeliev
p10209
(I85881
I2
tp10210
sS'bose'
p10211
(I50879
I1
tp10212
sS'leader'
p10213
(I145089
I1
tp10214
sS'trap'
p10215
(I249498
I1
tp10216
sVregain
p10217
(I202808
I1
tp10218
sVencourag
p10219
(I94673
I2
tp10220
sVinvestig
p10221
(I135048
I13
tp10222
sS'fellatio'
p10223
(I104855
I1
tp10224
sS'hamid'
p10225
(I116995
I1
tp10226
sS'aback'
p10227
(I21659
I1
tp10228
sS'journal'
p10229
(I138615
I1
tp10230
sVadversari
p10231
(I27415
I1
tp10232
sS'pp'
p10233
(I188014
I14
tp10234
sVourselv
p10235
(I176747
I1
tp10236
sS'yeap'
p10237
(I270425
I2
tp10238
sVtampin
p10239
(I237462
I1
tp10240
sS'246417'
p10241
(I10595
I1
tp10242
sVsizeabl
p10243
(I224345
I1
tp10244
sS'although'
p10245
(I32337
I14
tp10246
sVjanuari
p10247
(I137562
I14
tp10248
sVinstinct
p10249
(I132840
I1
tp10250
sVmonetari
p10251
(I160281
I2
tp10252
sS'stage'
p10253
(I228616
I9
tp10254
sS'sister'
p10255
(I223823
I5
tp10256
sVquarter
p10257
(I197609
I1
tp10258
sVactual
p10259
(I25572
I15
tp10260
sVinterven
p10261
(I134385
I1
tp10262
sS'face'
p10263
(I102212
I8
tp10264
sVjustic
p10265
(I140079
I9
tp10266
sVbiscuit
p10267
(I49930
I1
tp10268
sS'257'
p10269
(I11148
I3
tp10270
sVjustif
p10271
(I140204
I3
tp10272
sS'grey'
p10273
(I115102
I1
tp10274
sS'hiew'
p10275
(I121199
I1
tp10276
sS'fear'
p10277
(I104428
I2
tp10278
sS'pillow'
p10279
(I184641
I1
tp10280
sVbridg
p10281
(I51746
I2
tp10282
sVpneumat
p10283
(I186033
I1
tp10284
sVfals
p10285
(I103557
I7
tp10286
sS'midget'
p10287
(I158328
I1
tp10288
sVcertainti
p10289
(I57997
I2
tp10290
sS'emperor'
p10291
(I93976
I2
tp10292
sVactuat
p10293
(I25775
I2
tp10294
sVmagistr
p10295
(I152337
I8
tp10296
sVown
p10297
(I177864
I16
tp10298
sVabsolut
p10299
(I22803
I5
tp10300
sS'gambler'
p10301
(I111869
I1
tp10302
sS'el'
p10303
(I93496
I1
tp10304
sVowe
p10305
(I177781
I6
tp10306
sVautomat
p10307
(I43330
I1
tp10308
sVassess
p10309
(I41150
I8
tp10310
sS'guard'
p10311
(I115616
I2
tp10312
sVbrush
p10313
(I52598
I1
tp10314
sS'486'
p10315
(I16070
I1
tp10316
sS'contempt'
p10317
(I70232
I1
tp10318
sS'afoot'
p10319
(I27935
I1
tp10320
sS'mere'
p10321
(I157528
I18
tp10322
sVmerg
p10323
(I157777
I2
tp10324
sS'1986'
p10325
(I7121
I3
tp10326
sS'demeanour'
p10327
(I81761
I3
tp10328
sS'huat'
p10329
(I124680
I4
tp10330
sS'1985'
p10331
(I7093
I2
tp10332
sS'van'
p10333
(I257140
I3
tp10334
sS'1983'
p10335
(I7039
I2
tp10336
sS'1980'
p10337
(I6932
I3
tp10338
sS'1981'
p10339
(I6972
I3
tp10340
sVtransfer
p10341
(I249207
I3
tp10342
sS'530'
p10343
(I17111
I2
tp10344
sVabod
p10345
(I22116
I1
tp10346
sS'1988'
p10347
(I7218
I6
tp10348
sS'1989'
p10349
(I7300
I3
tp10350
sVspread
p10351
(I228285
I1
tp10352
sVpetti
p10353
(I184063
I1
tp10354
sS'162'
p10355
(I4734
I2
tp10356
sS'481'
p10357
(I16028
I1
tp10358
sVreplac
p10359
(I205845
I2
tp10360
sVguarantor
p10361
(I115602
I1
tp10362
sS'354a'
p10363
(I13760
I1
tp10364
sS'eg'
p10365
(I93181
I4
tp10366
sVadher
p10367
(I26461
I1
tp10368
sVdeliveri
p10369
(I81570
I8
tp10370
sVappoint
p10371
(I37495
I5
tp10372
sS'hoe'
p10373
(I122783
I1
tp10374
sVbuy
p10375
(I53594
I6
tp10376
sVcontradictori
p10377
(I71137
I2
tp10378
sVdissatisfact
p10379
(I87553
I1
tp10380
sVunexpect
p10381
(I253443
I1
tp10382
sVinnoc
p10383
(I131952
I7
tp10384
sS'aircraft'
p10385
(I29908
I1
tp10386
sS'rajah'
p10387
(I198832
I2
tp10388
sS'562'
p10389
(I17389
I1
tp10390
sVsubscrib
p10391
(I232775
I1
tp10392
sS'564'
p10393
(I17417
I1
tp10394
sS'xerox'
p10395
(I270288
I1
tp10396
sS'but'
p10397
(I53256
I23
tp10398
sS'hk'
p10399
(I122647
I2
tp10400
sVhi
p10401
(I120773
I25
tp10402
sS'ho'
p10403
(I122674
I5
tp10404
sS'sba'
p10405
(I213445
I1
tp10406
sS'larger'
p10407
(I143753
I3
tp10408
sVtechnician
p10409
(I238163
I2
tp10410
sS'didnt'
p10411
(I84697
I1
tp10412
sVeas
p10413
(I92451
I1
tp10414
sVha
p10415
(I116165
I19
tp10416
sVeat
p10417
(I92573
I2
tp10418
sS'khim'
p10419
(I141297
I1
tp10420
sVcount
p10421
(I74440
I2
tp10422
sVvulgar
p10423
(I259592
I1
tp10424
sS'made'
p10425
(I151985
I23
tp10426
sVwise
p10427
(I266881
I1
tp10428
sVdisplac
p10429
(I87085
I1
tp10430
sS'whether'
p10431
(I263907
I24
tp10432
sS'wish'
p10433
(I266909
I10
tp10434
sVmurphi
p10435
(I162434
I1
tp10436
sS'j'
p10437
(I137300
I12
tp10438
sS'88'
p10439
(I20241
I3
tp10440
sVtroubl
p10441
(I250629
I5
tp10442
sS'vacant'
p10443
(I256825
I1
tp10444
sS'record'
p10445
(I201634
I11
tp10446
sS'below'
p10447
(I48412
I16
tp10448
sVallocut
p10449
(I31017
I1
tp10450
sVlimit
p10451
(I148759
I9
tp10452
sS'723'
p10453
(I19302
I1
tp10454
sS'720'
p10455
(I19288
I1
tp10456
sVfetch
p10457
(I105131
I2
tp10458
sVcake
p10459
(I54261
I1
tp10460
sVotherwis
p10461
(I176289
I9
tp10462
sS'problem'
p10463
(I191542
I2
tp10464
sVquickli
p10465
(I198048
I3
tp10466
sVdisplay
p10467
(I87099
I2
tp10468
sS'loyang'
p10469
(I151269
I1
tp10470
sS'ex'
p10471
(I98849
I4
tp10472
sVcatch
p10473
(I56960
I1
tp10474
sS'block'
p10475
(I50220
I4
tp10476
sVblous
p10477
(I50303
I2
tp10478
sVevalu
p10479
(I97576
I2
tp10480
sS'cordial'
p10481
(I72808
I1
tp10482
sVmask
p10483
(I154870
I1
tp10484
sVdure
p10485
(I91280
I14
tp10486
sVexpectedli
p10487
(I100644
I1
tp10488
sVmovi
p10489
(I162028
I1
tp10490
sVnovemb
p10491
(I168408
I7
tp10492
sS'inn'
p10493
(I131938
I1
tp10494
sVcircul
p10495
(I60703
I1
tp10496
sVprostitut
p10497
(I194192
I1
tp10498
sS'0000'
p10499
(I710
I1
tp10500
sS'mistaken'
p10501
(I159417
I1
tp10502
sS'ing'
p10503
(I131429
I1
tp10504
sS'pit'
p10505
(I184698
I1
tp10506
sS'girl'
p10507
(I113028
I2
tp10508
sVprobabl
p10509
(I191433
I8
tp10510
sS'mutual'
p10511
(I162795
I2
tp10512
sVquot
p10513
(I198226
I6
tp10514
sVimmateri
p10515
(I126945
I4
tp10516
sS'49'
p10517
(I16098
I7
tp10518
sS'46'
p10519
(I15725
I2
tp10520
sS'47'
p10521
(I15808
I3
tp10522
sS'44'
p10523
(I15323
I3
tp10524
sS'45'
p10525
(I15433
I5
tp10526
sS'42'
p10527
(I15086
I4
tp10528
sVdetail
p10529
(I83414
I10
tp10530
sS'40'
p10531
(I14728
I8
tp10532
sS'41'
p10533
(I14990
I3
tp10534
sVtiwari
p10535
(I246874
I1
tp10536
sVdownpay
p10537
(I89839
I1
tp10538
sS'book'
p10539
(I50620
I3
tp10540
sS'special'
p10541
(I227440
I8
tp10542
sVrememb
p10543
(I205143
I6
tp10544
sVdisproportion
p10545
(I87250
I2
tp10546
sVdeadli
p10547
(I78686
I1
tp10548
sVwrongli
p10549
(I270150
I1
tp10550
sVconting
p10551
(I70768
I1
tp10552
sVimag
p10553
(I126903
I1
tp10554
sVreckless
p10555
(I201413
I1
tp10556
sVwindfal
p10557
(I266760
I1
tp10558
sVtautolog
p10559
(I237887
I2
tp10560
sVglidewel
p10561
(I113673
I1
tp10562
sVrepeat
p10563
(I205735
I6
tp10564
sS'star'
p10565
(I229012
I1
tp10566
sVdisfigur
p10567
(I86684
I1
tp10568
sVprofession
p10569
(I192520
I2
tp10570
sVarrear
p10571
(I39628
I1
tp10572
sS'june'
p10573
(I139638
I11
tp10574
sS'100m'
p10575
(I2036
I1
tp10576
sVhasel
p10577
(I117847
I1
tp10578
sS'stay'
p10579
(I229972
I7
tp10580
sS'margaret'
p10581
(I154634
I1
tp10582
sVfoil
p10583
(I107529
I1
tp10584
sS'gatley'
p10585
(I112143
I1
tp10586
sS'jackson'
p10587
(I137520
I1
tp10588
sVrepeal
p10589
(I205695
I3
tp10590
sVacquitt
p10591
(I24868
I3
tp10592
sS'vein'
p10593
(I257574
I1
tp10594
sS'keng'
p10595
(I140928
I1
tp10596
sS'ave'
p10597
(I43439
I1
tp10598
sS'simon'
p10599
(I222600
I1
tp10600
sVexperienc
p10601
(I100793
I2
tp10602
sVinvari
p10603
(I135007
I2
tp10604
sS'791'
p10605
(I19579
I1
tp10606
sVscientif
p10607
(I213890
I1
tp10608
sVitreport
p10609
(I136987
I1
tp10610
sS'baker'
p10611
(I44805
I1
tp10612
sS'martin'
p10613
(I154856
I1
tp10614
sVindirectli
p10615
(I130640
I1
tp10616
sVrule
p10617
(I210729
I10
tp10618
sVcasual
p10619
(I56918
I1
tp10620
sS'portion'
p10621
(I186915
I8
tp10622
sVemerg
p10623
(I93921
I2
tp10624
sS'blangah'
p10625
(I50027
I1
tp10626
sS'cogent'
p10627
(I63733
I2
tp10628
sVexpenditur
p10629
(I100699
I1
tp10630
sVknowl
p10631
(I142164
I1
tp10632
sVdecemb
p10633
(I79359
I8
tp10634
sS'479'
p10635
(I15945
I2
tp10636
sVconfess
p10637
(I67775
I3
tp10638
sVsincer
p10639
(I223081
I1
tp10640
s.