(dp0
I246786
F45.70087857167662
sI246787
F44.4903177036652
sI246788
F31.566452792738147
sI246789
F36.641096019045605
sI246791
F49.19379969781146
sI246792
F44.35062778283613
sI246795
F31.090996940101288
sI2124817
F36.455377733007865
sI1587119
F27.013960467492907
sI247336
F54.2787277364044
sI1620233
F44.2261264786495
sI246844
F32.57356846000202
sI2124213
F36.92175066037658
sI1587784
F30.551801090368542
sI1587786
F29.437249063954376
sI1587794
F45.63333166219256
sI1587796
F31.659819174541582
sI1587800
F48.3280063867342
sI1587812
F37.18035481484961
sI2043999
F32.77049257329193
sI246884
F38.75162426770479
sI246888
F49.97341042508938
sI1587306
F26.30009609735711
sI246898
F42.67466290566917
sI246391
F41.56051916647071
sI1587325
F23.767134151511726
sI246910
F45.115501497710845
sI246400
F32.120733350887726
sI246403
F44.72504691422002
sI246404
F38.105727523003786
sI246917
F34.366479659063735
sI246407
F36.05134027259516
sI246920
F58.68533632873017
sI2044048
F51.4545795704473
sI246417
F40.53608062219493
sI246421
F26.080314829091137
sI246427
F53.60786166910772
sI246429
F28.476110726490532
sI246436
F29.119736588634414
sI2043560
F29.701558135380232
sI2124969
F52.20424268349842
sI2043566
F22.41226192623296
sI246451
F27.026747921411292
sI2044084
F37.740469981752526
sI246453
F41.651430538164234
sI246455
F34.4004218341934
sI246460
F50.72871931605148
sI1587328
F30.909610070710592
sI246475
F29.872073925549515
sI1586893
F50.207417522921276
sI1588088
F41.96492704391025
sI1587418
F46.16710550802047
sI2123997
F30.238422571986458
sI1620199
F83.38721705440055
sI1587436
F49.72151420837288
sI1587441
F48.67682444777098
sI2124533
F35.837356448856006
sI1586945
F37.98928289617211
sI1586953
F22.105391947116516
sI1586959
F40.24338339030321
sI1587475
F29.164199432219938
sI1620245
F29.35620144929785
sI246566
F42.328494458101
sI2043691
F19.446404077355794
sI2043695
F51.697172328815405
sI1587508
F30.628628543412322
sI1587511
F38.848214933767615
sI2043708
F20.449091685472226
sI1587517
F24.95246132575143
sI1587519
F66.04448103373598
sI246592
F51.48818973902767
sI1587521
F38.29519955208465
sI2124621
F17.947795322760573
sI1587541
F40.44415104174782
sI246614
F47.85663334514952
sI1587549
F45.75076262525906
sI246624
F39.65084245891062
sI246626
F37.51835210910199
sI246639
F39.66563968175412
sI246647
F18.008209941285344
sI246648
F48.69973003333017
sI1587590
F38.05933531889988
sI246671
F39.359341328352556
sI246672
F63.99859173593339
sI1587602
F54.686865442360165
sI2124691
F46.15650891560522
sI246676
F37.16596073821595
sI246677
F39.729025878252045
sI246702
F37.48746103483627
sI246941
F58.16614342509558
sI246709
F36.169607332771086
sI246713
F41.971139092251725
sI2042299
F42.575040836567254
sI2044863
F36.208466506800484
sI2124742
F39.42494117593606
sI246731
F53.23402286420639
sI246738
F59.481462614391845
sI246740
F36.53930683441193
sI246743
F47.605126756704344
sI246746
F35.169441198722254
sI246747
F29.66021392269066
sI246748
F35.534536244190775
sI246751
F38.6731945181295
sI246762
F35.88801479090125
sI246764
F22.93469930557968
sI246765
F37.79946481140134
sI246766
F31.7671587904572
sI246767
F20.99610765726158
sI246768
F37.80236975796516
sI246771
F25.272405040505447
sI246775
F36.24105151887627
sI246776
F23.486385437424985
sI246777
F49.69993504048029
sI246779
F34.21515426231236
sI2124284
F30.054590426847795
sI246781
F31.05946179736159
sI246782
F50.023410398065806
sI246783
F26.265716381798985
s.