(dp0
I246400
F32.120733350887726
sI246403
F44.72504691422002
sI246404
F38.105727523003786
sI246407
F36.05134027259516
sI246391
F41.56051916647071
sI246671
F39.359341328352556
sI246672
F63.998591735933395
sI246417
F40.53608062219493
sI246421
F26.080314829091137
sI246427
F53.60786166910772
sI246429
F28.476110726490532
sI246436
F29.119736588634414
sI246566
F42.328494458101
sI246451
F27.026747921411292
sI246453
F41.651430538164234
sI246455
F34.4004218341934
sI246460
F50.72871931605148
sI246592
F51.48818973902767
sI246475
F29.872073925549515
sI246614
F47.85663334514952
sI246624
F39.65084245891062
sI246626
F37.51835210910199
sI246639
F39.66563968175412
sI246647
F18.008209941285344
sI246648
F48.69973003333017
s.