(dp0
I246400
F71.19518253039418
sI246403
F109.34813468506623
sI246404
F93.78795129621436
sI246407
F82.98665773015136
sI246391
F97.72721778412937
sI246671
F90.93543831122528
sI246672
F170.8655325110333
sI246417
F95.4342579641254
sI246421
F53.78228691923725
sI246427
F133.00723055182948
sI246429
F60.157645797054016
sI246436
F60.71694093034913
sI246566
F100.79935364548659
sI246451
F58.6509144591994
sI246453
F100.34958329455561
sI246455
F75.53342146797262
sI246460
F128.33015658067455
sI246592
F130.1005766996454
sI246475
F63.987551281503265
sI246614
F120.00919504287248
sI246624
F90.51657716439276
sI246626
F87.44081427841165
sI246639
F97.4273397985264
sI246647
F35.135266852225556
sI246648
F121.88349666684556
s.