(dp0
I246786
F120.85608253823752
sI246787
F108.09269503715163
sI246788
F69.64043240465188
sI246789
F85.38569207653066
sI246791
F121.9069860892338
sI246792
F104.13144471747881
sI246795
F66.78642208740443
sI2124817
F81.72803954707163
sI1587119
F57.427611199459854
sI247336
F137.41550691489064
sI1620233
F106.14233470055851
sI246844
F73.4571809861336
sI2124213
F81.24742832629559
sI1587784
F67.47077469369684
sI1587786
F62.72531043944996
sI1587794
F114.25795706549583
sI1587796
F71.48249155305074
sI1587800
F121.50656870562295
sI1587812
F86.86914293504343
sI2043999
F71.9209850879097
sI246884
F89.3558254356474
sI246888
F120.0800978617675
sI1587306
F55.98006625844838
sI246898
F100.91162075819805
sI246391
F97.72721778412937
sI1587325
F50.07069621160136
sI246910
F110.12813248449798
sI246400
F71.19518253039418
sI246403
F109.34813468506623
sI246404
F93.78795129621436
sI246917
F76.95911048248507
sI246407
F82.98665773015136
sI246920
F154.10155997686292
sI2044048
F124.19908643988595
sI246417
F95.4342579641254
sI246421
F53.78228691923725
sI246427
F133.00723055182948
sI246429
F60.157645797054016
sI246436
F60.71694093034913
sI2043560
F65.7916449076718
sI2124969
F134.03984883207988
sI2043566
F44.848456853797764
sI246451
F58.6509144591994
sI2044084
F86.79233813380915
sI246453
F100.34958329455561
sI246455
F75.53342146797262
sI246460
F128.33015658067455
sI1587328
F66.88559266367581
sI246475
F63.987551281503265
sI1586893
F126.41869766032727
sI1588088
F102.00063954393687
sI1587418
F114.79589008702389
sI2123997
F64.85349480297116
sI1620199
F246.8178863259435
sI1587436
F125.05874768481621
sI1587441
F121.95371301231897
sI2124533
F81.70491890761534
sI1586945
F85.82902103600814
sI1586953
F44.622056395362726
sI1586959
F95.56117861671504
sI1587475
F63.94047555627772
sI1620245
F64.82066416012175
sI246566
F100.79935364548659
sI2043691
F37.717634731634405
sI2043695
F133.2614945168182
sI1587508
F67.05396646664877
sI1587511
F88.39556311894148
sI2043708
F41.70303744246536
sI1587517
F51.628336985185136
sI1587519
F178.54014920167012
sI246592
F130.1005766996454
sI1587521
F90.69598137076473
sI2124621
F34.77881672060819
sI1587541
F95.60366723730924
sI246614
F120.00919504287248
sI1587549
F111.1063056518525
sI246624
F90.51657716439276
sI246626
F87.44081427841165
sI246639
F97.4273397985264
sI246647
F35.135266852225556
sI246648
F121.88349666684556
sI1587590
F87.84768509194721
sI246671
F90.93543831122528
sI246672
F170.8655325110333
sI1587602
F145.72224061658798
sI2124691
F110.87143235389044
sI246676
F86.2966959254309
sI246677
F92.61362901820266
sI246702
F85.7149308806569
sI246941
F151.2383957624812
sI246709
F81.7668681494035
sI246713
F102.00464047590964
sI2042299
F104.02281789763023
sI2044863
F72.13090310749546
sI2124742
F94.17676741878165
sI246731
F133.24524079563236
sI246738
F163.88730371224935
sI246740
F81.72458410820734
sI246743
F119.61911155881195
sI246746
F78.30527534781336
sI246747
F63.70216630587902
sI246748
F79.36171648435506
sI246751
F87.51304537182787
sI246762
F80.39808722682781
sI246764
F48.61506663996276
sI246765
F88.55203640279876
sI246766
F71.84695914941716
sI246767
F41.86954858412022
sI246768
F85.75301460333984
sI246771
F51.12574111548953
sI246775
F82.99593342922041
sI246776
F48.753053316771314
sI246777
F119.05568876647025
sI246779
F78.94986222556075
sI2124284
F64.93004584935184
sI246781
F67.13043615678376
sI246782
F124.64660501023285
sI246783
F54.70748830423396
s.