(dp0
I246786
I8246
sI246787
I5727
sI246788
I2181
sI246789
I3572
sI246791
I7188
sI246792
I5190
sI246795
I2021
sI2124817
I2970
sI1587119
I1479
sI247336
I9676
sI1620233
I5397
sI246844
I2439
sI2124213
I2918
sI1587784
I2093
sI1587786
I1672
sI1587794
I6665
sI1587796
I2421
sI1587800
I7592
sI1587812
I3599
sI2043999
I2367
sI246884
I3709
sI246888
I6878
sI1587306
I1344
sI246898
I4777
sI246391
I4495
sI1587325
I1072
sI246910
I5892
sI246400
I2339
sI246403
I6310
sI246404
I4557
sI246917
I2687
sI246407
I3216
sI246920
I12696
sI2044048
I7756
sI246417
I4314
sI246421
I1222
sI246427
I9097
sI246429
I1552
sI246436
I1520
sI2043560
I1957
sI2124969
I9374
sI2043566
I801
sI246451
I1532
sI2044084
I3601
sI246453
I4914
sI246455
I2506
sI246460
I8202
sI1587328
I1914
sI246475
I1733
sI1586893
I8381
sI1588088
I5051
sI1587418
I6663
sI2123997
I1755
sI1620199
I35257
sI1587436
I8181
sI1587441
I7460
sI2124533
I3188
sI1586945
I3313
sI1586953
I795
sI1586959
I4500
sI1587475
I1822
sI1620245
I1939
sI246566
I4998
sI2043691
I551
sI2043695
I9299
sI1587508
I1977
sI1587511
I3481
sI2043708
I728
sI1587517
I1081
sI1587519
I16896
sI246592
I8691
sI1587521
I3956
sI2124621
I468
sI1587541
I4441
sI246614
I7065
sI1587549
I6168
sI246624
I3825
sI246626
I3567
sI246639
I4914
sI246647
I478
sI246648
I7596
sI1587590
I3597
sI246671
I3867
sI246672
I14963
sI1587602
I11702
sI2124691
I6227
sI246676
I3686
sI246677
I4007
sI246702
I3511
sI246941
I11996
sI246709
I3050
sI246713
I5221
sI2042299
I5704
sI2044863
I2093
sI2124742
I4454
sI246731
I8964
sI246738
I14777
sI246740
I3042
sI246743
I7132
sI246746
I2683
sI246747
I1829
sI246748
I2767
sI246751
I3489
sI246762
I2967
sI246764
I1070
sI246765
I3785
sI246766
I2347
sI246767
I703
sI246768
I3265
sI246771
I1082
sI246775
I3156
sI246776
I1002
sI246777
I6700
sI246779
I2990
sI2124284
I1869
sI246781
I1940
sI246782
I7880
sI246783
I1253
s.